c__builtin__
set
p0
((lp1
S'/Volumes/nyee/datasets/frcnn_data/D0232_04HD/imgs/D0232_04HD_0005.png'
p2
aS'/Volumes/nyee/datasets/frcnn_data/D0232_04HD/imgs/D0232_04HD_0017.png'
p3
aS'/Volumes/nyee/datasets/frcnn_data/D0232_04HD/imgs/D0232_04HD_0263.png'
p4
aS'/Volumes/nyee/datasets/frcnn_data/D0232_04HD/imgs/D0232_04HD_0086.png'
p5
aS'/Volumes/nyee/datasets/frcnn_data/D0232_04HD/imgs/D0232_04HD_0162.png'
p6
aS'/Volumes/nyee/datasets/frcnn_data/D0232_04HD/imgs/D0232_04HD_0182.png'
p7
aS'/Volumes/nyee/datasets/frcnn_data/D0232_04HD/imgs/D0232_04HD_0266.png'
p8
aS'/Volumes/nyee/datasets/frcnn_data/D0232_04HD/imgs/D0232_04HD_0141.png'
p9
aS'/Volumes/nyee/datasets/frcnn_data/D0232_04HD/imgs/D0232_04HD_0094.png'
p10
aS'/Volumes/nyee/datasets/frcnn_data/D0232_04HD/imgs/D0232_04HD_0232.png'
p11
aS'/Volumes/nyee/datasets/frcnn_data/D0232_04HD/imgs/D0232_04HD_0222.png'
p12
aS'/Volumes/nyee/datasets/frcnn_data/D0232_04HD/imgs/D0232_04HD_0202.png'
p13
aS'/Volumes/nyee/datasets/frcnn_data/D0232_04HD/imgs/D0232_04HD_0106.png'
p14
aS'/Volumes/nyee/datasets/frcnn_data/D0232_04HD/imgs/D0232_04HD_0150.png'
p15
aS'/Volumes/nyee/datasets/frcnn_data/D0232_04HD/imgs/D0232_04HD_0056.png'
p16
aS'/Volumes/nyee/datasets/frcnn_data/D0232_04HD/imgs/D0232_04HD_0057.png'
p17
aS'/Volumes/nyee/datasets/frcnn_data/D0232_04HD/imgs/D0232_04HD_0136.png'
p18
aS'/Volumes/nyee/datasets/frcnn_data/D0232_04HD/imgs/D0232_04HD_0261.png'
p19
aS'/Volumes/nyee/datasets/frcnn_data/D0232_04HD/imgs/D0232_04HD_0273.png'
p20
aS'/Volumes/nyee/datasets/frcnn_data/D0232_04HD/imgs/D0232_04HD_0111.png'
p21
aS'/Volumes/nyee/datasets/frcnn_data/D0232_04HD/imgs/D0232_04HD_0198.png'
p22
aS'/Volumes/nyee/datasets/frcnn_data/D0232_04HD/imgs/D0232_04HD_0265.png'
p23
aS'/Volumes/nyee/datasets/frcnn_data/D0232_04HD/imgs/D0232_04HD_0170.png'
p24
aS'/Volumes/nyee/datasets/frcnn_data/D0232_04HD/imgs/D0232_04HD_0159.png'
p25
aS'/Volumes/nyee/datasets/frcnn_data/D0232_04HD/imgs/D0232_04HD_0158.png'
p26
aS'/Volumes/nyee/datasets/frcnn_data/D0232_04HD/imgs/D0232_04HD_0269.png'
p27
aS'/Volumes/nyee/datasets/frcnn_data/D0232_04HD/imgs/D0232_04HD_0224.png'
p28
aS'/Volumes/nyee/datasets/frcnn_data/D0232_04HD/imgs/D0232_04HD_0009.png'
p29
aS'/Volumes/nyee/datasets/frcnn_data/D0232_04HD/imgs/D0232_04HD_0143.png'
p30
aS'/Volumes/nyee/datasets/frcnn_data/D0232_04HD/imgs/D0232_04HD_0037.png'
p31
aS'/Volumes/nyee/datasets/frcnn_data/D0232_04HD/imgs/D0232_04HD_0207.png'
p32
aS'/Volumes/nyee/datasets/frcnn_data/D0232_04HD/imgs/D0232_04HD_0091.png'
p33
aS'/Volumes/nyee/datasets/frcnn_data/D0232_04HD/imgs/D0232_04HD_0104.png'
p34
aS'/Volumes/nyee/datasets/frcnn_data/D0232_04HD/imgs/D0232_04HD_0040.png'
p35
aS'/Volumes/nyee/datasets/frcnn_data/D0232_04HD/imgs/D0232_04HD_0092.png'
p36
aS'/Volumes/nyee/datasets/frcnn_data/D0232_04HD/imgs/D0232_04HD_0107.png'
p37
aS'/Volumes/nyee/datasets/frcnn_data/D0232_04HD/imgs/D0232_04HD_0054.png'
p38
aS'/Volumes/nyee/datasets/frcnn_data/D0232_04HD/imgs/D0232_04HD_0175.png'
p39
aS'/Volumes/nyee/datasets/frcnn_data/D0232_04HD/imgs/D0232_04HD_0004.png'
p40
aS'/Volumes/nyee/datasets/frcnn_data/D0232_04HD/imgs/D0232_04HD_0256.png'
p41
aS'/Volumes/nyee/datasets/frcnn_data/D0232_04HD/imgs/D0232_04HD_0098.png'
p42
aS'/Volumes/nyee/datasets/frcnn_data/D0232_04HD/imgs/D0232_04HD_0253.png'
p43
aS'/Volumes/nyee/datasets/frcnn_data/D0232_04HD/imgs/D0232_04HD_0030.png'
p44
aS'/Volumes/nyee/datasets/frcnn_data/D0232_04HD/imgs/D0232_04HD_0033.png'
p45
aS'/Volumes/nyee/datasets/frcnn_data/D0232_04HD/imgs/D0232_04HD_0188.png'
p46
aS'/Volumes/nyee/datasets/frcnn_data/D0232_04HD/imgs/D0232_04HD_0233.png'
p47
aS'/Volumes/nyee/datasets/frcnn_data/D0232_04HD/imgs/D0232_04HD_0080.png'
p48
aS'/Volumes/nyee/datasets/frcnn_data/D0232_04HD/imgs/D0232_04HD_0248.png'
p49
aS'/Volumes/nyee/datasets/frcnn_data/D0232_04HD/imgs/D0232_04HD_0168.png'
p50
aS'/Volumes/nyee/datasets/frcnn_data/D0232_04HD/imgs/D0232_04HD_0126.png'
p51
aS'/Volumes/nyee/datasets/frcnn_data/D0232_04HD/imgs/D0232_04HD_0127.png'
p52
aS'/Volumes/nyee/datasets/frcnn_data/D0232_04HD/imgs/D0232_04HD_0139.png'
p53
aS'/Volumes/nyee/datasets/frcnn_data/D0232_04HD/imgs/D0232_04HD_0254.png'
p54
aS'/Volumes/nyee/datasets/frcnn_data/D0232_04HD/imgs/D0232_04HD_0185.png'
p55
aS'/Volumes/nyee/datasets/frcnn_data/D0232_04HD/imgs/D0232_04HD_0007.png'
p56
aS'/Volumes/nyee/datasets/frcnn_data/D0232_04HD/imgs/D0232_04HD_0042.png'
p57
aS'/Volumes/nyee/datasets/frcnn_data/D0232_04HD/imgs/D0232_04HD_0250.png'
p58
aS'/Volumes/nyee/datasets/frcnn_data/D0232_04HD/imgs/D0232_04HD_0066.png'
p59
aS'/Volumes/nyee/datasets/frcnn_data/D0232_04HD/imgs/D0232_04HD_0003.png'
p60
aS'/Volumes/nyee/datasets/frcnn_data/D0232_04HD/imgs/D0232_04HD_0002.png'
p61
aS'/Volumes/nyee/datasets/frcnn_data/D0232_04HD/imgs/D0232_04HD_0193.png'
p62
aS'/Volumes/nyee/datasets/frcnn_data/D0232_04HD/imgs/D0232_04HD_0192.png'
p63
aS'/Volumes/nyee/datasets/frcnn_data/D0232_04HD/imgs/D0232_04HD_0032.png'
p64
aS'/Volumes/nyee/datasets/frcnn_data/D0232_04HD/imgs/D0232_04HD_0095.png'
p65
aS'/Volumes/nyee/datasets/frcnn_data/D0232_04HD/imgs/D0232_04HD_0179.png'
p66
aS'/Volumes/nyee/datasets/frcnn_data/D0232_04HD/imgs/D0232_04HD_0282.png'
p67
aS'/Volumes/nyee/datasets/frcnn_data/D0232_04HD/imgs/D0232_04HD_0230.png'
p68
aS'/Volumes/nyee/datasets/frcnn_data/D0232_04HD/imgs/D0232_04HD_0221.png'
p69
aS'/Volumes/nyee/datasets/frcnn_data/D0232_04HD/imgs/D0232_04HD_0138.png'
p70
aS'/Volumes/nyee/datasets/frcnn_data/D0232_04HD/imgs/D0232_04HD_0214.png'
p71
aS'/Volumes/nyee/datasets/frcnn_data/D0232_04HD/imgs/D0232_04HD_0075.png'
p72
aS'/Volumes/nyee/datasets/frcnn_data/D0232_04HD/imgs/D0232_04HD_0048.png'
p73
aS'/Volumes/nyee/datasets/frcnn_data/D0232_04HD/imgs/D0232_04HD_0047.png'
p74
aS'/Volumes/nyee/datasets/frcnn_data/D0232_04HD/imgs/D0232_04HD_0039.png'
p75
aS'/Volumes/nyee/datasets/frcnn_data/D0232_04HD/imgs/D0232_04HD_0249.png'
p76
aS'/Volumes/nyee/datasets/frcnn_data/D0232_04HD/imgs/D0232_04HD_0110.png'
p77
aS'/Volumes/nyee/datasets/frcnn_data/D0232_04HD/imgs/D0232_04HD_0067.png'
p78
aS'/Volumes/nyee/datasets/frcnn_data/D0232_04HD/imgs/D0232_04HD_0264.png'
p79
aS'/Volumes/nyee/datasets/frcnn_data/D0232_04HD/imgs/D0232_04HD_0062.png'
p80
aS'/Volumes/nyee/datasets/frcnn_data/D0232_04HD/imgs/D0232_04HD_0027.png'
p81
aS'/Volumes/nyee/datasets/frcnn_data/D0232_04HD/imgs/D0232_04HD_0234.png'
p82
aS'/Volumes/nyee/datasets/frcnn_data/D0232_04HD/imgs/D0232_04HD_0024.png'
p83
aS'/Volumes/nyee/datasets/frcnn_data/D0232_04HD/imgs/D0232_04HD_0197.png'
p84
aS'/Volumes/nyee/datasets/frcnn_data/D0232_04HD/imgs/D0232_04HD_0021.png'
p85
aS'/Volumes/nyee/datasets/frcnn_data/D0232_04HD/imgs/D0232_04HD_0008.png'
p86
aS'/Volumes/nyee/datasets/frcnn_data/D0232_04HD/imgs/D0232_04HD_0058.png'
p87
aS'/Volumes/nyee/datasets/frcnn_data/D0232_04HD/imgs/D0232_04HD_0216.png'
p88
aS'/Volumes/nyee/datasets/frcnn_data/D0232_04HD/imgs/D0232_04HD_0043.png'
p89
aS'/Volumes/nyee/datasets/frcnn_data/D0232_04HD/imgs/D0232_04HD_0070.png'
p90
aS'/Volumes/nyee/datasets/frcnn_data/D0232_04HD/imgs/D0232_04HD_0071.png'
p91
aS'/Volumes/nyee/datasets/frcnn_data/D0232_04HD/imgs/D0232_04HD_0055.png'
p92
aS'/Volumes/nyee/datasets/frcnn_data/D0232_04HD/imgs/D0232_04HD_0255.png'
p93
aS'/Volumes/nyee/datasets/frcnn_data/D0232_04HD/imgs/D0232_04HD_0177.png'
p94
aS'/Volumes/nyee/datasets/frcnn_data/D0232_04HD/imgs/D0232_04HD_0271.png'
p95
aS'/Volumes/nyee/datasets/frcnn_data/D0232_04HD/imgs/D0232_04HD_0089.png'
p96
aS'/Volumes/nyee/datasets/frcnn_data/D0232_04HD/imgs/D0232_04HD_0013.png'
p97
aS'/Volumes/nyee/datasets/frcnn_data/D0232_04HD/imgs/D0232_04HD_0243.png'
p98
aS'/Volumes/nyee/datasets/frcnn_data/D0232_04HD/imgs/D0232_04HD_0116.png'
p99
aS'/Volumes/nyee/datasets/frcnn_data/D0232_04HD/imgs/D0232_04HD_0142.png'
p100
aS'/Volumes/nyee/datasets/frcnn_data/D0232_04HD/imgs/D0232_04HD_0240.png'
p101
aS'/Volumes/nyee/datasets/frcnn_data/D0232_04HD/imgs/D0232_04HD_0023.png'
p102
aS'/Volumes/nyee/datasets/frcnn_data/D0232_04HD/imgs/D0232_04HD_0178.png'
p103
aS'/Volumes/nyee/datasets/frcnn_data/D0232_04HD/imgs/D0232_04HD_0204.png'
p104
aS'/Volumes/nyee/datasets/frcnn_data/D0232_04HD/imgs/D0232_04HD_0041.png'
p105
aS'/Volumes/nyee/datasets/frcnn_data/D0232_04HD/imgs/D0232_04HD_0073.png'
p106
aS'/Volumes/nyee/datasets/frcnn_data/D0232_04HD/imgs/D0232_04HD_0072.png'
p107
aS'/Volumes/nyee/datasets/frcnn_data/D0232_04HD/imgs/D0232_04HD_0016.png'
p108
aS'/Volumes/nyee/datasets/frcnn_data/D0232_04HD/imgs/D0232_04HD_0165.png'
p109
aS'/Volumes/nyee/datasets/frcnn_data/D0232_04HD/imgs/D0232_04HD_0117.png'
p110
aS'/Volumes/nyee/datasets/frcnn_data/D0232_04HD/imgs/D0232_04HD_0238.png'
p111
aS'/Volumes/nyee/datasets/frcnn_data/D0232_04HD/imgs/D0232_04HD_0239.png'
p112
aS'/Volumes/nyee/datasets/frcnn_data/D0232_04HD/imgs/D0232_04HD_0081.png'
p113
aS'/Volumes/nyee/datasets/frcnn_data/D0232_04HD/imgs/D0232_04HD_0213.png'
p114
aS'/Volumes/nyee/datasets/frcnn_data/D0232_04HD/imgs/D0232_04HD_0196.png'
p115
aS'/Volumes/nyee/datasets/frcnn_data/D0232_04HD/imgs/D0232_04HD_0151.png'
p116
aS'/Volumes/nyee/datasets/frcnn_data/D0232_04HD/imgs/D0232_04HD_0259.png'
p117
aS'/Volumes/nyee/datasets/frcnn_data/D0232_04HD/imgs/D0232_04HD_0218.png'
p118
aS'/Volumes/nyee/datasets/frcnn_data/D0232_04HD/imgs/D0232_04HD_0205.png'
p119
aS'/Volumes/nyee/datasets/frcnn_data/D0232_04HD/imgs/D0232_04HD_0018.png'
p120
aS'/Volumes/nyee/datasets/frcnn_data/D0232_04HD/imgs/D0232_04HD_0217.png'
p121
aS'/Volumes/nyee/datasets/frcnn_data/D0232_04HD/imgs/D0232_04HD_0180.png'
p122
aS'/Volumes/nyee/datasets/frcnn_data/D0232_04HD/imgs/D0232_04HD_0133.png'
p123
aS'/Volumes/nyee/datasets/frcnn_data/D0232_04HD/imgs/D0232_04HD_0100.png'
p124
aS'/Volumes/nyee/datasets/frcnn_data/D0232_04HD/imgs/D0232_04HD_0101.png'
p125
aS'/Volumes/nyee/datasets/frcnn_data/D0232_04HD/imgs/D0232_04HD_0125.png'
p126
aS'/Volumes/nyee/datasets/frcnn_data/D0232_04HD/imgs/D0232_04HD_0187.png'
p127
aS'/Volumes/nyee/datasets/frcnn_data/D0232_04HD/imgs/D0232_04HD_0010.png'
p128
aS'/Volumes/nyee/datasets/frcnn_data/D0232_04HD/imgs/D0232_04HD_0029.png'
p129
aS'/Volumes/nyee/datasets/frcnn_data/D0232_04HD/imgs/D0232_04HD_0028.png'
p130
aS'/Volumes/nyee/datasets/frcnn_data/D0232_04HD/imgs/D0232_04HD_0119.png'
p131
aS'/Volumes/nyee/datasets/frcnn_data/D0232_04HD/imgs/D0232_04HD_0011.png'
p132
aS'/Volumes/nyee/datasets/frcnn_data/D0232_04HD/imgs/D0232_04HD_0153.png'
p133
aS'/Volumes/nyee/datasets/frcnn_data/D0232_04HD/imgs/D0232_04HD_0145.png'
p134
aS'/Volumes/nyee/datasets/frcnn_data/D0232_04HD/imgs/D0232_04HD_0195.png'
p135
aS'/Volumes/nyee/datasets/frcnn_data/D0232_04HD/imgs/D0232_04HD_0280.png'
p136
aS'/Volumes/nyee/datasets/frcnn_data/D0232_04HD/imgs/D0232_04HD_0210.png'
p137
aS'/Volumes/nyee/datasets/frcnn_data/D0232_04HD/imgs/D0232_04HD_0211.png'
p138
aS'/Volumes/nyee/datasets/frcnn_data/D0232_04HD/imgs/D0232_04HD_0078.png'
p139
aS'/Volumes/nyee/datasets/frcnn_data/D0232_04HD/imgs/D0232_04HD_0209.png'
p140
aS'/Volumes/nyee/datasets/frcnn_data/D0232_04HD/imgs/D0232_04HD_0131.png'
p141
aS'/Volumes/nyee/datasets/frcnn_data/D0232_04HD/imgs/D0232_04HD_0132.png'
p142
aS'/Volumes/nyee/datasets/frcnn_data/D0232_04HD/imgs/D0232_04HD_0166.png'
p143
aS'/Volumes/nyee/datasets/frcnn_data/D0232_04HD/imgs/D0232_04HD_0112.png'
p144
aS'/Volumes/nyee/datasets/frcnn_data/D0232_04HD/imgs/D0232_04HD_0186.png'
p145
aS'/Volumes/nyee/datasets/frcnn_data/D0232_04HD/imgs/D0232_04HD_0176.png'
p146
aS'/Volumes/nyee/datasets/frcnn_data/D0232_04HD/imgs/D0232_04HD_0001.png'
p147
aS'/Volumes/nyee/datasets/frcnn_data/D0232_04HD/imgs/D0232_04HD_0088.png'
p148
aS'/Volumes/nyee/datasets/frcnn_data/D0232_04HD/imgs/D0232_04HD_0267.png'
p149
aS'/Volumes/nyee/datasets/frcnn_data/D0232_04HD/imgs/D0232_04HD_0183.png'
p150
aS'/Volumes/nyee/datasets/frcnn_data/D0232_04HD/imgs/D0232_04HD_0026.png'
p151
aS'/Volumes/nyee/datasets/frcnn_data/D0232_04HD/imgs/D0232_04HD_0191.png'
p152
aS'/Volumes/nyee/datasets/frcnn_data/D0232_04HD/imgs/D0232_04HD_0284.png'
p153
aS'/Volumes/nyee/datasets/frcnn_data/D0232_04HD/imgs/D0232_04HD_0246.png'
p154
aS'/Volumes/nyee/datasets/frcnn_data/D0232_04HD/imgs/D0232_04HD_0281.png'
p155
aS'/Volumes/nyee/datasets/frcnn_data/D0232_04HD/imgs/D0232_04HD_0015.png'
p156
aS'/Volumes/nyee/datasets/frcnn_data/D0232_04HD/imgs/D0232_04HD_0083.png'
p157
aS'/Volumes/nyee/datasets/frcnn_data/D0232_04HD/imgs/D0232_04HD_0200.png'
p158
aS'/Volumes/nyee/datasets/frcnn_data/D0232_04HD/imgs/D0232_04HD_0063.png'
p159
aS'/Volumes/nyee/datasets/frcnn_data/D0232_04HD/imgs/D0232_04HD_0228.png'
p160
aS'/Volumes/nyee/datasets/frcnn_data/D0232_04HD/imgs/D0232_04HD_0184.png'
p161
aS'/Volumes/nyee/datasets/frcnn_data/D0232_04HD/imgs/D0232_04HD_0049.png'
p162
aS'/Volumes/nyee/datasets/frcnn_data/D0232_04HD/imgs/D0232_04HD_0014.png'
p163
aS'/Volumes/nyee/datasets/frcnn_data/D0232_04HD/imgs/D0232_04HD_0257.png'
p164
aS'/Volumes/nyee/datasets/frcnn_data/D0232_04HD/imgs/D0232_04HD_0229.png'
p165
aS'/Volumes/nyee/datasets/frcnn_data/D0232_04HD/imgs/D0232_04HD_0115.png'
p166
aS'/Volumes/nyee/datasets/frcnn_data/D0232_04HD/imgs/D0232_04HD_0114.png'
p167
aS'/Volumes/nyee/datasets/frcnn_data/D0232_04HD/imgs/D0232_04HD_0225.png'
p168
aS'/Volumes/nyee/datasets/frcnn_data/D0232_04HD/imgs/D0232_04HD_0268.png'
p169
aS'/Volumes/nyee/datasets/frcnn_data/D0232_04HD/imgs/D0232_04HD_0226.png'
p170
aS'/Volumes/nyee/datasets/frcnn_data/D0232_04HD/imgs/D0232_04HD_0283.png'
p171
aS'/Volumes/nyee/datasets/frcnn_data/D0232_04HD/imgs/D0232_04HD_0152.png'
p172
aS'/Volumes/nyee/datasets/frcnn_data/D0232_04HD/imgs/D0232_04HD_0245.png'
p173
aS'/Volumes/nyee/datasets/frcnn_data/D0232_04HD/imgs/D0232_04HD_0206.png'
p174
aS'/Volumes/nyee/datasets/frcnn_data/D0232_04HD/imgs/D0232_04HD_0108.png'
p175
aS'/Volumes/nyee/datasets/frcnn_data/D0232_04HD/imgs/D0232_04HD_0123.png'
p176
aS'/Volumes/nyee/datasets/frcnn_data/D0232_04HD/imgs/D0232_04HD_0046.png'
p177
aS'/Volumes/nyee/datasets/frcnn_data/D0232_04HD/imgs/D0232_04HD_0038.png'
p178
aS'/Volumes/nyee/datasets/frcnn_data/D0232_04HD/imgs/D0232_04HD_0167.png'
p179
aS'/Volumes/nyee/datasets/frcnn_data/D0232_04HD/imgs/D0232_04HD_0199.png'
p180
aS'/Volumes/nyee/datasets/frcnn_data/D0232_04HD/imgs/D0232_04HD_0060.png'
p181
aS'/Volumes/nyee/datasets/frcnn_data/D0232_04HD/imgs/D0232_04HD_0171.png'
p182
aS'/Volumes/nyee/datasets/frcnn_data/D0232_04HD/imgs/D0232_04HD_0277.png'
p183
aS'/Volumes/nyee/datasets/frcnn_data/D0232_04HD/imgs/D0232_04HD_0156.png'
p184
aS'/Volumes/nyee/datasets/frcnn_data/D0232_04HD/imgs/D0232_04HD_0087.png'
p185
aS'/Volumes/nyee/datasets/frcnn_data/D0232_04HD/imgs/D0232_04HD_0036.png'
p186
aS'/Volumes/nyee/datasets/frcnn_data/D0232_04HD/imgs/D0232_04HD_0220.png'
p187
aS'/Volumes/nyee/datasets/frcnn_data/D0232_04HD/imgs/D0232_04HD_0118.png'
p188
aS'/Volumes/nyee/datasets/frcnn_data/D0232_04HD/imgs/D0232_04HD_0050.png'
p189
aS'/Volumes/nyee/datasets/frcnn_data/D0232_04HD/imgs/D0232_04HD_0082.png'
p190
aS'/Volumes/nyee/datasets/frcnn_data/D0232_04HD/imgs/D0232_04HD_0045.png'
p191
aS'/Volumes/nyee/datasets/frcnn_data/D0232_04HD/imgs/D0232_04HD_0044.png'
p192
aS'/Volumes/nyee/datasets/frcnn_data/D0232_04HD/imgs/D0232_04HD_0103.png'
p193
aS'/Volumes/nyee/datasets/frcnn_data/D0232_04HD/imgs/D0232_04HD_0260.png'
p194
aS'/Volumes/nyee/datasets/frcnn_data/D0232_04HD/imgs/D0232_04HD_0164.png'
p195
aS'/Volumes/nyee/datasets/frcnn_data/D0232_04HD/imgs/D0232_04HD_0160.png'
p196
aS'/Volumes/nyee/datasets/frcnn_data/D0232_04HD/imgs/D0232_04HD_0161.png'
p197
aS'/Volumes/nyee/datasets/frcnn_data/D0232_04HD/imgs/D0232_04HD_0096.png'
p198
aS'/Volumes/nyee/datasets/frcnn_data/D0232_04HD/imgs/D0232_04HD_0097.png'
p199
aS'/Volumes/nyee/datasets/frcnn_data/D0232_04HD/imgs/D0232_04HD_0190.png'
p200
aS'/Volumes/nyee/datasets/frcnn_data/D0232_04HD/imgs/D0232_04HD_0034.png'
p201
aS'/Volumes/nyee/datasets/frcnn_data/D0232_04HD/imgs/D0232_04HD_0212.png'
p202
aS'/Volumes/nyee/datasets/frcnn_data/D0232_04HD/imgs/D0232_04HD_0147.png'
p203
aS'/Volumes/nyee/datasets/frcnn_data/D0232_04HD/imgs/D0232_04HD_0059.png'
p204
aS'/Volumes/nyee/datasets/frcnn_data/D0232_04HD/imgs/D0232_04HD_0052.png'
p205
aS'/Volumes/nyee/datasets/frcnn_data/D0232_04HD/imgs/D0232_04HD_0130.png'
p206
aS'/Volumes/nyee/datasets/frcnn_data/D0232_04HD/imgs/D0232_04HD_0051.png'
p207
aS'/Volumes/nyee/datasets/frcnn_data/D0232_04HD/imgs/D0232_04HD_0124.png'
p208
aS'/Volumes/nyee/datasets/frcnn_data/D0232_04HD/imgs/D0232_04HD_0148.png'
p209
aS'/Volumes/nyee/datasets/frcnn_data/D0232_04HD/imgs/D0232_04HD_0174.png'
p210
aS'/Volumes/nyee/datasets/frcnn_data/D0232_04HD/imgs/D0232_04HD_0235.png'
p211
aS'/Volumes/nyee/datasets/frcnn_data/D0232_04HD/imgs/D0232_04HD_0181.png'
p212
aS'/Volumes/nyee/datasets/frcnn_data/D0232_04HD/imgs/D0232_04HD_0140.png'
p213
aS'/Volumes/nyee/datasets/frcnn_data/D0232_04HD/imgs/D0232_04HD_0278.png'
p214
aS'/Volumes/nyee/datasets/frcnn_data/D0232_04HD/imgs/D0232_04HD_0068.png'
p215
aS'/Volumes/nyee/datasets/frcnn_data/D0232_04HD/imgs/D0232_04HD_0258.png'
p216
aS'/Volumes/nyee/datasets/frcnn_data/D0232_04HD/imgs/D0232_04HD_0189.png'
p217
aS'/Volumes/nyee/datasets/frcnn_data/D0232_04HD/imgs/D0232_04HD_0146.png'
p218
aS'/Volumes/nyee/datasets/frcnn_data/D0232_04HD/imgs/D0232_04HD_0244.png'
p219
aS'/Volumes/nyee/datasets/frcnn_data/D0232_04HD/imgs/D0232_04HD_0109.png'
p220
aS'/Volumes/nyee/datasets/frcnn_data/D0232_04HD/imgs/D0232_04HD_0120.png'
p221
aS'/Volumes/nyee/datasets/frcnn_data/D0232_04HD/imgs/D0232_04HD_0169.png'
p222
aS'/Volumes/nyee/datasets/frcnn_data/D0232_04HD/imgs/D0232_04HD_0135.png'
p223
aS'/Volumes/nyee/datasets/frcnn_data/D0232_04HD/imgs/D0232_04HD_0134.png'
p224
aS'/Volumes/nyee/datasets/frcnn_data/D0232_04HD/imgs/D0232_04HD_0252.png'
p225
aS'/Volumes/nyee/datasets/frcnn_data/D0232_04HD/imgs/D0232_04HD_0173.png'
p226
aS'/Volumes/nyee/datasets/frcnn_data/D0232_04HD/imgs/D0232_04HD_0172.png'
p227
aS'/Volumes/nyee/datasets/frcnn_data/D0232_04HD/imgs/D0232_04HD_0242.png'
p228
aS'/Volumes/nyee/datasets/frcnn_data/D0232_04HD/imgs/D0232_04HD_0025.png'
p229
aS'/Volumes/nyee/datasets/frcnn_data/D0232_04HD/imgs/D0232_04HD_0099.png'
p230
aS'/Volumes/nyee/datasets/frcnn_data/D0232_04HD/imgs/D0232_04HD_0144.png'
p231
aS'/Volumes/nyee/datasets/frcnn_data/D0232_04HD/imgs/D0232_04HD_0035.png'
p232
aS'/Volumes/nyee/datasets/frcnn_data/D0232_04HD/imgs/D0232_04HD_0223.png'
p233
aS'/Volumes/nyee/datasets/frcnn_data/D0232_04HD/imgs/D0232_04HD_0019.png'
p234
aS'/Volumes/nyee/datasets/frcnn_data/D0232_04HD/imgs/D0232_04HD_0129.png'
p235
aS'/Volumes/nyee/datasets/frcnn_data/D0232_04HD/imgs/D0232_04HD_0203.png'
p236
aS'/Volumes/nyee/datasets/frcnn_data/D0232_04HD/imgs/D0232_04HD_0122.png'
p237
aS'/Volumes/nyee/datasets/frcnn_data/D0232_04HD/imgs/D0232_04HD_0105.png'
p238
aS'/Volumes/nyee/datasets/frcnn_data/D0232_04HD/imgs/D0232_04HD_0121.png'
p239
aS'/Volumes/nyee/datasets/frcnn_data/D0232_04HD/imgs/D0232_04HD_0241.png'
p240
aS'/Volumes/nyee/datasets/frcnn_data/D0232_04HD/imgs/D0232_04HD_0137.png'
p241
aS'/Volumes/nyee/datasets/frcnn_data/D0232_04HD/imgs/D0232_04HD_0113.png'
p242
aS'/Volumes/nyee/datasets/frcnn_data/D0232_04HD/imgs/D0232_04HD_0149.png'
p243
aS'/Volumes/nyee/datasets/frcnn_data/D0232_04HD/imgs/D0232_04HD_0270.png'
p244
aS'/Volumes/nyee/datasets/frcnn_data/D0232_04HD/imgs/D0232_04HD_0006.png'
p245
aS'/Volumes/nyee/datasets/frcnn_data/D0232_04HD/imgs/D0232_04HD_0012.png'
p246
aS'/Volumes/nyee/datasets/frcnn_data/D0232_04HD/imgs/D0232_04HD_0251.png'
p247
aS'/Volumes/nyee/datasets/frcnn_data/D0232_04HD/imgs/D0232_04HD_0274.png'
p248
aS'/Volumes/nyee/datasets/frcnn_data/D0232_04HD/imgs/D0232_04HD_0275.png'
p249
aS'/Volumes/nyee/datasets/frcnn_data/D0232_04HD/imgs/D0232_04HD_0157.png'
p250
aS'/Volumes/nyee/datasets/frcnn_data/D0232_04HD/imgs/D0232_04HD_0031.png'
p251
aS'/Volumes/nyee/datasets/frcnn_data/D0232_04HD/imgs/D0232_04HD_0227.png'
p252
aS'/Volumes/nyee/datasets/frcnn_data/D0232_04HD/imgs/D0232_04HD_0154.png'
p253
aS'/Volumes/nyee/datasets/frcnn_data/D0232_04HD/imgs/D0232_04HD_0247.png'
p254
aS'/Volumes/nyee/datasets/frcnn_data/D0232_04HD/imgs/D0232_04HD_0093.png'
p255
aS'/Volumes/nyee/datasets/frcnn_data/D0232_04HD/imgs/D0232_04HD_0231.png'
p256
aS'/Volumes/nyee/datasets/frcnn_data/D0232_04HD/imgs/D0232_04HD_0128.png'
p257
aS'/Volumes/nyee/datasets/frcnn_data/D0232_04HD/imgs/D0232_04HD_0215.png'
p258
aS'/Volumes/nyee/datasets/frcnn_data/D0232_04HD/imgs/D0232_04HD_0201.png'
p259
aS'/Volumes/nyee/datasets/frcnn_data/D0232_04HD/imgs/D0232_04HD_0219.png'
p260
aS'/Volumes/nyee/datasets/frcnn_data/D0232_04HD/imgs/D0232_04HD_0076.png'
p261
aS'/Volumes/nyee/datasets/frcnn_data/D0232_04HD/imgs/D0232_04HD_0194.png'
p262
aS'/Volumes/nyee/datasets/frcnn_data/D0232_04HD/imgs/D0232_04HD_0208.png'
p263
aS'/Volumes/nyee/datasets/frcnn_data/D0232_04HD/imgs/D0232_04HD_0272.png'
p264
aS'/Volumes/nyee/datasets/frcnn_data/D0232_04HD/imgs/D0232_04HD_0061.png'
p265
aS'/Volumes/nyee/datasets/frcnn_data/D0232_04HD/imgs/D0232_04HD_0262.png'
p266
aS'/Volumes/nyee/datasets/frcnn_data/D0232_04HD/imgs/D0232_04HD_0276.png'
p267
aS'/Volumes/nyee/datasets/frcnn_data/D0232_04HD/imgs/D0232_04HD_0163.png'
p268
aS'/Volumes/nyee/datasets/frcnn_data/D0232_04HD/imgs/D0232_04HD_0065.png'
p269
aS'/Volumes/nyee/datasets/frcnn_data/D0232_04HD/imgs/D0232_04HD_0064.png'
p270
aS'/Volumes/nyee/datasets/frcnn_data/D0232_04HD/imgs/D0232_04HD_0236.png'
p271
aS'/Volumes/nyee/datasets/frcnn_data/D0232_04HD/imgs/D0232_04HD_0237.png'
p272
aS'/Volumes/nyee/datasets/frcnn_data/D0232_04HD/imgs/D0232_04HD_0155.png'
p273
aS'/Volumes/nyee/datasets/frcnn_data/D0232_04HD/imgs/D0232_04HD_0279.png'
p274
aS'/Volumes/nyee/datasets/frcnn_data/D0232_04HD/imgs/D0232_04HD_0022.png'
p275
aS'/Volumes/nyee/datasets/frcnn_data/D0232_04HD/imgs/D0232_04HD_0090.png'
p276
aS'/Volumes/nyee/datasets/frcnn_data/D0232_04HD/imgs/D0232_04HD_0085.png'
p277
aS'/Volumes/nyee/datasets/frcnn_data/D0232_04HD/imgs/D0232_04HD_0084.png'
p278
aS'/Volumes/nyee/datasets/frcnn_data/D0232_04HD/imgs/D0232_04HD_0074.png'
p279
aS'/Volumes/nyee/datasets/frcnn_data/D0232_04HD/imgs/D0232_04HD_0053.png'
p280
aS'/Volumes/nyee/datasets/frcnn_data/D0232_04HD/imgs/D0232_04HD_0077.png'
p281
aS'/Volumes/nyee/datasets/frcnn_data/D0232_04HD/imgs/D0232_04HD_0069.png'
p282
aS'/Volumes/nyee/datasets/frcnn_data/D0232_04HD/imgs/D0232_04HD_0102.png'
p283
aS'/Volumes/nyee/datasets/frcnn_data/D0232_04HD/imgs/D0232_04HD_0079.png'
p284
atp285
Rp286
.