c__builtin__
set
p0
((lp1
S'/Volumes/nyee/datasets/frcnn_data/D0443_05HD/imgs/D0443_05HD_0259.png'
p2
aS'/Volumes/nyee/datasets/frcnn_data/D0673_04HD/imgs/D0673_04HD_0155.png'
p3
aS'/Volumes/nyee/datasets/frcnn_data/D0232_04HD/imgs/D0232_04HD_0094.png'
p4
aS'/Volumes/nyee/datasets/frcnn_data/D0232_04HD/imgs/D0232_04HD_0331.png'
p5
aS'/Volumes/nyee/datasets/frcnn_data/D0673_04HD/imgs/D0673_04HD_0188.png'
p6
aS'/Volumes/nyee/datasets/frcnn_data/D0673_04HD/imgs/D0673_04HD_0199.png'
p7
aS'/Volumes/nyee/datasets/frcnn_data/D0673_04HD/imgs/D0673_04HD_0130.png'
p8
aS'/Volumes/nyee/datasets/frcnn_data/D0673_04HD/imgs/D0673_04HD_0125.png'
p9
aS'/Volumes/nyee/datasets/frcnn_data/D0673_04HD/imgs/D0673_04HD_0117.png'
p10
aS'/Volumes/nyee/datasets/frcnn_data/D0443_05HD/imgs/D0443_05HD_0004.png'
p11
aS'/Volumes/nyee/datasets/frcnn_data/D008_03HD/imgs/D008_03HD_0215.png'
p12
aS'/Volumes/nyee/datasets/frcnn_data/D0232_04HD/imgs/D0232_04HD_0049.png'
p13
aS'/Volumes/nyee/datasets/frcnn_data/D0443_05HD/imgs/D0443_05HD_0219.png'
p14
aS'/Volumes/nyee/datasets/frcnn_data/D0673_04HD/imgs/D0673_04HD_0010.png'
p15
aS'/Volumes/nyee/datasets/frcnn_data/D008_03HD/imgs/D008_03HD_0064.png'
p16
aS'/Volumes/nyee/datasets/frcnn_data/D0673_04HD/imgs/D0673_04HD_0088.png'
p17
aS'/Volumes/nyee/datasets/frcnn_data/D0443_05HD/imgs/D0443_05HD_0340.png'
p18
aS'/Volumes/nyee/datasets/frcnn_data/D0442_06HD/imgs/D0442_06HD_0033.png'
p19
aS'/Volumes/nyee/datasets/frcnn_data/D0443_05HD/imgs/D0443_05HD_0282.png'
p20
aS'/Volumes/nyee/datasets/frcnn_data/D0232_04HD/imgs/D0232_04HD_0033.png'
p21
aS'/Volumes/nyee/datasets/frcnn_data/D0232_04HD/imgs/D0232_04HD_0188.png'
p22
aS'/Volumes/nyee/datasets/frcnn_data/D0443_05HD/imgs/D0443_05HD_0013.png'
p23
aS'/Volumes/nyee/datasets/frcnn_data/D008_03HD/imgs/D008_03HD_0077.png'
p24
aS'/Volumes/nyee/datasets/frcnn_data/D008_03HD/imgs/D008_03HD_0357.png'
p25
aS'/Volumes/nyee/datasets/frcnn_data/D008_03HD/imgs/D008_03HD_0294.png'
p26
aS'/Volumes/nyee/datasets/frcnn_data/D0232_04HD/imgs/D0232_04HD_0126.png'
p27
aS'/Volumes/nyee/datasets/frcnn_data/D0443_05HD/imgs/D0443_05HD_0293.png'
p28
aS'/Volumes/nyee/datasets/frcnn_data/D008_03HD/imgs/D008_03HD_0196.png'
p29
aS'/Volumes/nyee/datasets/frcnn_data/D0443_05HD/imgs/D0443_05HD_0176.png'
p30
aS'/Volumes/nyee/datasets/frcnn_data/D008_03HD/imgs/D008_03HD_0327.png'
p31
aS'/Volumes/nyee/datasets/frcnn_data/D0442_06HD/imgs/D0442_06HD_0296.png'
p32
aS'/Volumes/nyee/datasets/frcnn_data/D0232_04HD/imgs/D0232_04HD_0209.png'
p33
aS'/Volumes/nyee/datasets/frcnn_data/D0443_05HD/imgs/D0443_05HD_0014.png'
p34
aS'/Volumes/nyee/datasets/frcnn_data/D008_03HD/imgs/D008_03HD_0223.png'
p35
aS'/Volumes/nyee/datasets/frcnn_data/D0443_05HD/imgs/D0443_05HD_0032.png'
p36
aS'/Volumes/nyee/datasets/frcnn_data/D008_03HD/imgs/D008_03HD_0201.png'
p37
aS'/Volumes/nyee/datasets/frcnn_data/D0442_06HD/imgs/D0442_06HD_0079.png'
p38
aS'/Volumes/nyee/datasets/frcnn_data/D0232_04HD/imgs/D0232_04HD_0177.png'
p39
aS'/Volumes/nyee/datasets/frcnn_data/D0442_06HD/imgs/D0442_06HD_0181.png'
p40
aS'/Volumes/nyee/datasets/frcnn_data/D0232_04HD/imgs/D0232_04HD_0023.png'
p41
aS'/Volumes/nyee/datasets/frcnn_data/D0673_04HD/imgs/D0673_04HD_0111.png'
p42
aS'/Volumes/nyee/datasets/frcnn_data/D008_03HD/imgs/D008_03HD_0258.png'
p43
aS'/Volumes/nyee/datasets/frcnn_data/D0673_04HD/imgs/D0673_04HD_0051.png'
p44
aS'/Volumes/nyee/datasets/frcnn_data/D008_03HD/imgs/D008_03HD_0214.png'
p45
aS'/Volumes/nyee/datasets/frcnn_data/D0442_06HD/imgs/D0442_06HD_0225.png'
p46
aS'/Volumes/nyee/datasets/frcnn_data/D0442_06HD/imgs/D0442_06HD_0345.png'
p47
aS'/Volumes/nyee/datasets/frcnn_data/D0443_05HD/imgs/D0443_05HD_0108.png'
p48
aS'/Volumes/nyee/datasets/frcnn_data/D0442_06HD/imgs/D0442_06HD_0100.png'
p49
aS'/Volumes/nyee/datasets/frcnn_data/D008_03HD/imgs/D008_03HD_0359.png'
p50
aS'/Volumes/nyee/datasets/frcnn_data/D0232_04HD/imgs/D0232_04HD_0101.png'
p51
aS'/Volumes/nyee/datasets/frcnn_data/D0442_06HD/imgs/D0442_06HD_0022.png'
p52
aS'/Volumes/nyee/datasets/frcnn_data/D0442_06HD/imgs/D0442_06HD_0230.png'
p53
aS'/Volumes/nyee/datasets/frcnn_data/D008_03HD/imgs/D008_03HD_0194.png'
p54
aS'/Volumes/nyee/datasets/frcnn_data/D008_03HD/imgs/D008_03HD_0180.png'
p55
aS'/Volumes/nyee/datasets/frcnn_data/D0232_04HD/imgs/D0232_04HD_0372.png'
p56
aS'/Volumes/nyee/datasets/frcnn_data/D0442_06HD/imgs/D0442_06HD_0273.png'
p57
aS'/Volumes/nyee/datasets/frcnn_data/D0673_04HD/imgs/D0673_04HD_0211.png'
p58
aS'/Volumes/nyee/datasets/frcnn_data/D0443_05HD/imgs/D0443_05HD_0320.png'
p59
aS'/Volumes/nyee/datasets/frcnn_data/D0232_04HD/imgs/D0232_04HD_0132.png'
p60
aS'/Volumes/nyee/datasets/frcnn_data/D0443_05HD/imgs/D0443_05HD_0278.png'
p61
aS'/Volumes/nyee/datasets/frcnn_data/D0442_06HD/imgs/D0442_06HD_0043.png'
p62
aS'/Volumes/nyee/datasets/frcnn_data/D0442_06HD/imgs/D0442_06HD_0332.png'
p63
aS'/Volumes/nyee/datasets/frcnn_data/D0442_06HD/imgs/D0442_06HD_0012.png'
p64
aS'/Volumes/nyee/datasets/frcnn_data/D0442_06HD/imgs/D0442_06HD_0007.png'
p65
aS'/Volumes/nyee/datasets/frcnn_data/D0443_05HD/imgs/D0443_05HD_0315.png'
p66
aS'/Volumes/nyee/datasets/frcnn_data/D0232_04HD/imgs/D0232_04HD_0346.png'
p67
aS'/Volumes/nyee/datasets/frcnn_data/D0232_04HD/imgs/D0232_04HD_0114.png'
p68
aS'/Volumes/nyee/datasets/frcnn_data/D0232_04HD/imgs/D0232_04HD_0268.png'
p69
aS'/Volumes/nyee/datasets/frcnn_data/D0442_06HD/imgs/D0442_06HD_0351.png'
p70
aS'/Volumes/nyee/datasets/frcnn_data/D008_03HD/imgs/D008_03HD_0351.png'
p71
aS'/Volumes/nyee/datasets/frcnn_data/D0443_05HD/imgs/D0443_05HD_0149.png'
p72
aS'/Volumes/nyee/datasets/frcnn_data/D008_03HD/imgs/D008_03HD_0158.png'
p73
aS'/Volumes/nyee/datasets/frcnn_data/D0442_06HD/imgs/D0442_06HD_0081.png'
p74
aS'/Volumes/nyee/datasets/frcnn_data/D0442_06HD/imgs/D0442_06HD_0053.png'
p75
aS'/Volumes/nyee/datasets/frcnn_data/D008_03HD/imgs/D008_03HD_0323.png'
p76
aS'/Volumes/nyee/datasets/frcnn_data/D0232_04HD/imgs/D0232_04HD_0241.png'
p77
aS'/Volumes/nyee/datasets/frcnn_data/D0443_05HD/imgs/D0443_05HD_0172.png'
p78
aS'/Volumes/nyee/datasets/frcnn_data/D0673_04HD/imgs/D0673_04HD_0218.png'
p79
aS'/Volumes/nyee/datasets/frcnn_data/D0673_04HD/imgs/D0673_04HD_0045.png'
p80
aS'/Volumes/nyee/datasets/frcnn_data/D008_03HD/imgs/D008_03HD_0085.png'
p81
aS'/Volumes/nyee/datasets/frcnn_data/D0443_05HD/imgs/D0443_05HD_0181.png'
p82
aS'/Volumes/nyee/datasets/frcnn_data/D0232_04HD/imgs/D0232_04HD_0103.png'
p83
aS'/Volumes/nyee/datasets/frcnn_data/D0442_06HD/imgs/D0442_06HD_0020.png'
p84
aS'/Volumes/nyee/datasets/frcnn_data/D0673_04HD/imgs/D0673_04HD_0122.png'
p85
aS'/Volumes/nyee/datasets/frcnn_data/D0442_06HD/imgs/D0442_06HD_0328.png'
p86
aS'/Volumes/nyee/datasets/frcnn_data/D0442_06HD/imgs/D0442_06HD_0271.png'
p87
aS'/Volumes/nyee/datasets/frcnn_data/D0673_04HD/imgs/D0673_04HD_0210.png'
p88
aS'/Volumes/nyee/datasets/frcnn_data/D0232_04HD/imgs/D0232_04HD_0181.png'
p89
aS'/Volumes/nyee/datasets/frcnn_data/D0673_04HD/imgs/D0673_04HD_0061.png'
p90
aS'/Volumes/nyee/datasets/frcnn_data/D0232_04HD/imgs/D0232_04HD_0278.png'
p91
aS'/Volumes/nyee/datasets/frcnn_data/D0443_05HD/imgs/D0443_05HD_0267.png'
p92
aS'/Volumes/nyee/datasets/frcnn_data/D0443_05HD/imgs/D0443_05HD_0231.png'
p93
aS'/Volumes/nyee/datasets/frcnn_data/D008_03HD/imgs/D008_03HD_0129.png'
p94
aS'/Volumes/nyee/datasets/frcnn_data/D0673_04HD/imgs/D0673_04HD_0060.png'
p95
aS'/Volumes/nyee/datasets/frcnn_data/D0673_04HD/imgs/D0673_04HD_0025.png'
p96
aS'/Volumes/nyee/datasets/frcnn_data/D0673_04HD/imgs/D0673_04HD_0260.png'
p97
aS'/Volumes/nyee/datasets/frcnn_data/D0443_05HD/imgs/D0443_05HD_0130.png'
p98
aS'/Volumes/nyee/datasets/frcnn_data/D0673_04HD/imgs/D0673_04HD_0099.png'
p99
aS'/Volumes/nyee/datasets/frcnn_data/D0443_05HD/imgs/D0443_05HD_0194.png'
p100
aS'/Volumes/nyee/datasets/frcnn_data/D008_03HD/imgs/D008_03HD_0339.png'
p101
aS'/Volumes/nyee/datasets/frcnn_data/D0443_05HD/imgs/D0443_05HD_0257.png'
p102
aS'/Volumes/nyee/datasets/frcnn_data/D0673_04HD/imgs/D0673_04HD_0167.png'
p103
aS'/Volumes/nyee/datasets/frcnn_data/D0232_04HD/imgs/D0232_04HD_0149.png'
p104
aS'/Volumes/nyee/datasets/frcnn_data/D008_03HD/imgs/D008_03HD_0224.png'
p105
aS'/Volumes/nyee/datasets/frcnn_data/D0232_04HD/imgs/D0232_04HD_0318.png'
p106
aS'/Volumes/nyee/datasets/frcnn_data/D0232_04HD/imgs/D0232_04HD_0221.png'
p107
aS'/Volumes/nyee/datasets/frcnn_data/D0673_04HD/imgs/D0673_04HD_0179.png'
p108
aS'/Volumes/nyee/datasets/frcnn_data/D008_03HD/imgs/D008_03HD_0248.png'
p109
aS'/Volumes/nyee/datasets/frcnn_data/D0443_05HD/imgs/D0443_05HD_0313.png'
p110
aS'/Volumes/nyee/datasets/frcnn_data/D0673_04HD/imgs/D0673_04HD_0231.png'
p111
aS'/Volumes/nyee/datasets/frcnn_data/D0443_05HD/imgs/D0443_05HD_0183.png'
p112
aS'/Volumes/nyee/datasets/frcnn_data/D008_03HD/imgs/D008_03HD_0148.png'
p113
aS'/Volumes/nyee/datasets/frcnn_data/D0673_04HD/imgs/D0673_04HD_0139.png'
p114
aS'/Volumes/nyee/datasets/frcnn_data/D0442_06HD/imgs/D0442_06HD_0267.png'
p115
aS'/Volumes/nyee/datasets/frcnn_data/D008_03HD/imgs/D008_03HD_0188.png'
p116
aS'/Volumes/nyee/datasets/frcnn_data/D0673_04HD/imgs/D0673_04HD_0238.png'
p117
aS'/Volumes/nyee/datasets/frcnn_data/D0232_04HD/imgs/D0232_04HD_0333.png'
p118
aS'/Volumes/nyee/datasets/frcnn_data/D0673_04HD/imgs/D0673_04HD_0017.png'
p119
aS'/Volumes/nyee/datasets/frcnn_data/D0442_06HD/imgs/D0442_06HD_0243.png'
p120
aS'/Volumes/nyee/datasets/frcnn_data/D0232_04HD/imgs/D0232_04HD_0017.png'
p121
aS'/Volumes/nyee/datasets/frcnn_data/D0442_06HD/imgs/D0442_06HD_0047.png'
p122
aS'/Volumes/nyee/datasets/frcnn_data/D0443_05HD/imgs/D0443_05HD_0101.png'
p123
aS'/Volumes/nyee/datasets/frcnn_data/D0443_05HD/imgs/D0443_05HD_0124.png'
p124
aS'/Volumes/nyee/datasets/frcnn_data/D0443_05HD/imgs/D0443_05HD_0046.png'
p125
aS'/Volumes/nyee/datasets/frcnn_data/D0443_05HD/imgs/D0443_05HD_0251.png'
p126
aS'/Volumes/nyee/datasets/frcnn_data/D008_03HD/imgs/D008_03HD_0132.png'
p127
aS'/Volumes/nyee/datasets/frcnn_data/D008_03HD/imgs/D008_03HD_0282.png'
p128
aS'/Volumes/nyee/datasets/frcnn_data/D0443_05HD/imgs/D0443_05HD_0132.png'
p129
aS'/Volumes/nyee/datasets/frcnn_data/D008_03HD/imgs/D008_03HD_0035.png'
p130
aS'/Volumes/nyee/datasets/frcnn_data/D0443_05HD/imgs/D0443_05HD_0166.png'
p131
aS'/Volumes/nyee/datasets/frcnn_data/D008_03HD/imgs/D008_03HD_0311.png'
p132
aS'/Volumes/nyee/datasets/frcnn_data/D0443_05HD/imgs/D0443_05HD_0141.png'
p133
aS'/Volumes/nyee/datasets/frcnn_data/D0673_04HD/imgs/D0673_04HD_0014.png'
p134
aS'/Volumes/nyee/datasets/frcnn_data/D008_03HD/imgs/D008_03HD_0332.png'
p135
aS'/Volumes/nyee/datasets/frcnn_data/D0232_04HD/imgs/D0232_04HD_0175.png'
p136
aS'/Volumes/nyee/datasets/frcnn_data/D0673_04HD/imgs/D0673_04HD_0254.png'
p137
aS'/Volumes/nyee/datasets/frcnn_data/D0442_06HD/imgs/D0442_06HD_0205.png'
p138
aS'/Volumes/nyee/datasets/frcnn_data/D008_03HD/imgs/D008_03HD_0055.png'
p139
aS'/Volumes/nyee/datasets/frcnn_data/D008_03HD/imgs/D008_03HD_0007.png'
p140
aS'/Volumes/nyee/datasets/frcnn_data/D0443_05HD/imgs/D0443_05HD_0097.png'
p141
aS'/Volumes/nyee/datasets/frcnn_data/D0673_04HD/imgs/D0673_04HD_0065.png'
p142
aS'/Volumes/nyee/datasets/frcnn_data/D0232_04HD/imgs/D0232_04HD_0110.png'
p143
aS'/Volumes/nyee/datasets/frcnn_data/D0442_06HD/imgs/D0442_06HD_0286.png'
p144
aS'/Volumes/nyee/datasets/frcnn_data/D0232_04HD/imgs/D0232_04HD_0027.png'
p145
aS'/Volumes/nyee/datasets/frcnn_data/D0443_05HD/imgs/D0443_05HD_0265.png'
p146
aS'/Volumes/nyee/datasets/frcnn_data/D0443_05HD/imgs/D0443_05HD_0253.png'
p147
aS'/Volumes/nyee/datasets/frcnn_data/D008_03HD/imgs/D008_03HD_0205.png'
p148
aS'/Volumes/nyee/datasets/frcnn_data/D0443_05HD/imgs/D0443_05HD_0036.png'
p149
aS'/Volumes/nyee/datasets/frcnn_data/D008_03HD/imgs/D008_03HD_0037.png'
p150
aS'/Volumes/nyee/datasets/frcnn_data/D008_03HD/imgs/D008_03HD_0317.png'
p151
aS'/Volumes/nyee/datasets/frcnn_data/D0232_04HD/imgs/D0232_04HD_0142.png'
p152
aS'/Volumes/nyee/datasets/frcnn_data/D0442_06HD/imgs/D0442_06HD_0064.png'
p153
aS'/Volumes/nyee/datasets/frcnn_data/D0443_05HD/imgs/D0443_05HD_0160.png'
p154
aS'/Volumes/nyee/datasets/frcnn_data/D0232_04HD/imgs/D0232_04HD_0204.png'
p155
aS'/Volumes/nyee/datasets/frcnn_data/D008_03HD/imgs/D008_03HD_0289.png'
p156
aS'/Volumes/nyee/datasets/frcnn_data/D008_03HD/imgs/D008_03HD_0066.png'
p157
aS'/Volumes/nyee/datasets/frcnn_data/D0232_04HD/imgs/D0232_04HD_0041.png'
p158
aS'/Volumes/nyee/datasets/frcnn_data/D0443_05HD/imgs/D0443_05HD_0336.png'
p159
aS'/Volumes/nyee/datasets/frcnn_data/D0442_06HD/imgs/D0442_06HD_0031.png'
p160
aS'/Volumes/nyee/datasets/frcnn_data/D0232_04HD/imgs/D0232_04HD_0072.png'
p161
aS'/Volumes/nyee/datasets/frcnn_data/D0673_04HD/imgs/D0673_04HD_0226.png'
p162
aS'/Volumes/nyee/datasets/frcnn_data/D008_03HD/imgs/D008_03HD_0017.png'
p163
aS'/Volumes/nyee/datasets/frcnn_data/D0442_06HD/imgs/D0442_06HD_0229.png'
p164
aS'/Volumes/nyee/datasets/frcnn_data/D0443_05HD/imgs/D0443_05HD_0355.png'
p165
aS'/Volumes/nyee/datasets/frcnn_data/D0673_04HD/imgs/D0673_04HD_0187.png'
p166
aS'/Volumes/nyee/datasets/frcnn_data/D0232_04HD/imgs/D0232_04HD_0217.png'
p167
aS'/Volumes/nyee/datasets/frcnn_data/D008_03HD/imgs/D008_03HD_0213.png'
p168
aS'/Volumes/nyee/datasets/frcnn_data/D0442_06HD/imgs/D0442_06HD_0234.png'
p169
aS'/Volumes/nyee/datasets/frcnn_data/D0232_04HD/imgs/D0232_04HD_0373.png'
p170
aS'/Volumes/nyee/datasets/frcnn_data/D0232_04HD/imgs/D0232_04HD_0119.png'
p171
aS'/Volumes/nyee/datasets/frcnn_data/D0442_06HD/imgs/D0442_06HD_0370.png'
p172
aS'/Volumes/nyee/datasets/frcnn_data/D0443_05HD/imgs/D0443_05HD_0120.png'
p173
aS'/Volumes/nyee/datasets/frcnn_data/D0443_05HD/imgs/D0443_05HD_0190.png'
p174
aS'/Volumes/nyee/datasets/frcnn_data/D0442_06HD/imgs/D0442_06HD_0355.png'
p175
aS'/Volumes/nyee/datasets/frcnn_data/D008_03HD/imgs/D008_03HD_0140.png'
p176
aS'/Volumes/nyee/datasets/frcnn_data/D0442_06HD/imgs/D0442_06HD_0062.png'
p177
aS'/Volumes/nyee/datasets/frcnn_data/D0232_04HD/imgs/D0232_04HD_0168.png'
p178
aS'/Volumes/nyee/datasets/frcnn_data/D008_03HD/imgs/D008_03HD_0336.png'
p179
aS'/Volumes/nyee/datasets/frcnn_data/D0443_05HD/imgs/D0443_05HD_0145.png'
p180
aS'/Volumes/nyee/datasets/frcnn_data/D0673_04HD/imgs/D0673_04HD_0019.png'
p181
aS'/Volumes/nyee/datasets/frcnn_data/D0442_06HD/imgs/D0442_06HD_0146.png'
p182
aS'/Volumes/nyee/datasets/frcnn_data/D0232_04HD/imgs/D0232_04HD_0229.png'
p183
aS'/Volumes/nyee/datasets/frcnn_data/D0442_06HD/imgs/D0442_06HD_0348.png'
p184
aS'/Volumes/nyee/datasets/frcnn_data/D008_03HD/imgs/D008_03HD_0043.png'
p185
aS'/Volumes/nyee/datasets/frcnn_data/D0673_04HD/imgs/D0673_04HD_0082.png'
p186
aS'/Volumes/nyee/datasets/frcnn_data/D0443_05HD/imgs/D0443_05HD_0192.png'
p187
aS'/Volumes/nyee/datasets/frcnn_data/D0442_06HD/imgs/D0442_06HD_0115.png'
p188
aS'/Volumes/nyee/datasets/frcnn_data/D0442_06HD/imgs/D0442_06HD_0365.png'
p189
aS'/Volumes/nyee/datasets/frcnn_data/D008_03HD/imgs/D008_03HD_0241.png'
p190
aS'/Volumes/nyee/datasets/frcnn_data/D0673_04HD/imgs/D0673_04HD_0053.png'
p191
aS'/Volumes/nyee/datasets/frcnn_data/D008_03HD/imgs/D008_03HD_0250.png'
p192
aS'/Volumes/nyee/datasets/frcnn_data/D008_03HD/imgs/D008_03HD_0314.png'
p193
aS'/Volumes/nyee/datasets/frcnn_data/D0673_04HD/imgs/D0673_04HD_0249.png'
p194
aS'/Volumes/nyee/datasets/frcnn_data/D0232_04HD/imgs/D0232_04HD_0356.png'
p195
aS'/Volumes/nyee/datasets/frcnn_data/D0442_06HD/imgs/D0442_06HD_0264.png'
p196
aS'/Volumes/nyee/datasets/frcnn_data/D0673_04HD/imgs/D0673_04HD_0214.png'
p197
aS'/Volumes/nyee/datasets/frcnn_data/D0443_05HD/imgs/D0443_05HD_0135.png'
p198
aS'/Volumes/nyee/datasets/frcnn_data/D0443_05HD/imgs/D0443_05HD_0080.png'
p199
aS'/Volumes/nyee/datasets/frcnn_data/D0442_06HD/imgs/D0442_06HD_0213.png'
p200
aS'/Volumes/nyee/datasets/frcnn_data/D0443_05HD/imgs/D0443_05HD_0199.png'
p201
aS'/Volumes/nyee/datasets/frcnn_data/D0232_04HD/imgs/D0232_04HD_0375.png'
p202
aS'/Volumes/nyee/datasets/frcnn_data/D0443_05HD/imgs/D0443_05HD_0243.png'
p203
aS'/Volumes/nyee/datasets/frcnn_data/D0442_06HD/imgs/D0442_06HD_0366.png'
p204
aS'/Volumes/nyee/datasets/frcnn_data/D0443_05HD/imgs/D0443_05HD_0038.png'
p205
aS'/Volumes/nyee/datasets/frcnn_data/D008_03HD/imgs/D008_03HD_0101.png'
p206
aS'/Volumes/nyee/datasets/frcnn_data/D008_03HD/imgs/D008_03HD_0003.png'
p207
aS'/Volumes/nyee/datasets/frcnn_data/D0673_04HD/imgs/D0673_04HD_0132.png'
p208
aS'/Volumes/nyee/datasets/frcnn_data/D0442_06HD/imgs/D0442_06HD_0074.png'
p209
aS'/Volumes/nyee/datasets/frcnn_data/D0232_04HD/imgs/D0232_04HD_0189.png'
p210
aS'/Volumes/nyee/datasets/frcnn_data/D0442_06HD/imgs/D0442_06HD_0060.png'
p211
aS'/Volumes/nyee/datasets/frcnn_data/D008_03HD/imgs/D008_03HD_0062.png'
p212
aS'/Volumes/nyee/datasets/frcnn_data/D0673_04HD/imgs/D0673_04HD_0145.png'
p213
aS'/Volumes/nyee/datasets/frcnn_data/D0443_05HD/imgs/D0443_05HD_0212.png'
p214
aS'/Volumes/nyee/datasets/frcnn_data/D0673_04HD/imgs/D0673_04HD_0234.png'
p215
aS'/Volumes/nyee/datasets/frcnn_data/D0442_06HD/imgs/D0442_06HD_0165.png'
p216
aS'/Volumes/nyee/datasets/frcnn_data/D0443_05HD/imgs/D0443_05HD_0325.png'
p217
aS'/Volumes/nyee/datasets/frcnn_data/D0673_04HD/imgs/D0673_04HD_0190.png'
p218
aS'/Volumes/nyee/datasets/frcnn_data/D0443_05HD/imgs/D0443_05HD_0198.png'
p219
aS'/Volumes/nyee/datasets/frcnn_data/D0232_04HD/imgs/D0232_04HD_0012.png'
p220
aS'/Volumes/nyee/datasets/frcnn_data/D0673_04HD/imgs/D0673_04HD_0206.png'
p221
aS'/Volumes/nyee/datasets/frcnn_data/D0673_04HD/imgs/D0673_04HD_0113.png'
p222
aS'/Volumes/nyee/datasets/frcnn_data/D0232_04HD/imgs/D0232_04HD_0154.png'
p223
aS'/Volumes/nyee/datasets/frcnn_data/D0232_04HD/imgs/D0232_04HD_0247.png'
p224
aS'/Volumes/nyee/datasets/frcnn_data/D0443_05HD/imgs/D0443_05HD_0170.png'
p225
aS'/Volumes/nyee/datasets/frcnn_data/D0443_05HD/imgs/D0443_05HD_0249.png'
p226
aS'/Volumes/nyee/datasets/frcnn_data/D0232_04HD/imgs/D0232_04HD_0061.png'
p227
aS'/Volumes/nyee/datasets/frcnn_data/D0232_04HD/imgs/D0232_04HD_0380.png'
p228
aS'/Volumes/nyee/datasets/frcnn_data/D0443_05HD/imgs/D0443_05HD_0059.png'
p229
aS'/Volumes/nyee/datasets/frcnn_data/D0232_04HD/imgs/D0232_04HD_0022.png'
p230
aS'/Volumes/nyee/datasets/frcnn_data/D0443_05HD/imgs/D0443_05HD_0224.png'
p231
aS'/Volumes/nyee/datasets/frcnn_data/D008_03HD/imgs/D008_03HD_0126.png'
p232
aS'/Volumes/nyee/datasets/frcnn_data/D0442_06HD/imgs/D0442_06HD_0359.png'
p233
aS'/Volumes/nyee/datasets/frcnn_data/D0232_04HD/imgs/D0232_04HD_0141.png'
p234
aS'/Volumes/nyee/datasets/frcnn_data/D0443_05HD/imgs/D0443_05HD_0177.png'
p235
aS'/Volumes/nyee/datasets/frcnn_data/D008_03HD/imgs/D008_03HD_0326.png'
p236
aS'/Volumes/nyee/datasets/frcnn_data/D0443_05HD/imgs/D0443_05HD_0109.png'
p237
aS'/Volumes/nyee/datasets/frcnn_data/D0442_06HD/imgs/D0442_06HD_0206.png'
p238
aS'/Volumes/nyee/datasets/frcnn_data/D0443_05HD/imgs/D0443_05HD_0155.png'
p239
aS'/Volumes/nyee/datasets/frcnn_data/D008_03HD/imgs/D008_03HD_0344.png'
p240
aS'/Volumes/nyee/datasets/frcnn_data/D0443_05HD/imgs/D0443_05HD_0209.png'
p241
aS'/Volumes/nyee/datasets/frcnn_data/D008_03HD/imgs/D008_03HD_0115.png'
p242
aS'/Volumes/nyee/datasets/frcnn_data/D0232_04HD/imgs/D0232_04HD_0057.png'
p243
aS'/Volumes/nyee/datasets/frcnn_data/D008_03HD/imgs/D008_03HD_0319.png'
p244
aS'/Volumes/nyee/datasets/frcnn_data/D0442_06HD/imgs/D0442_06HD_0288.png'
p245
aS'/Volumes/nyee/datasets/frcnn_data/D008_03HD/imgs/D008_03HD_0020.png'
p246
aS'/Volumes/nyee/datasets/frcnn_data/D0442_06HD/imgs/D0442_06HD_0320.png'
p247
aS'/Volumes/nyee/datasets/frcnn_data/D0442_06HD/imgs/D0442_06HD_0029.png'
p248
aS'/Volumes/nyee/datasets/frcnn_data/D0442_06HD/imgs/D0442_06HD_0247.png'
p249
aS'/Volumes/nyee/datasets/frcnn_data/D0443_05HD/imgs/D0443_05HD_0074.png'
p250
aS'/Volumes/nyee/datasets/frcnn_data/D0442_06HD/imgs/D0442_06HD_0313.png'
p251
aS'/Volumes/nyee/datasets/frcnn_data/D0443_05HD/imgs/D0443_05HD_0068.png'
p252
aS'/Volumes/nyee/datasets/frcnn_data/D008_03HD/imgs/D008_03HD_0239.png'
p253
aS'/Volumes/nyee/datasets/frcnn_data/D0232_04HD/imgs/D0232_04HD_0179.png'
p254
aS'/Volumes/nyee/datasets/frcnn_data/D0442_06HD/imgs/D0442_06HD_0350.png'
p255
aS'/Volumes/nyee/datasets/frcnn_data/D0442_06HD/imgs/D0442_06HD_0070.png'
p256
aS'/Volumes/nyee/datasets/frcnn_data/D008_03HD/imgs/D008_03HD_0207.png'
p257
aS'/Volumes/nyee/datasets/frcnn_data/D0443_05HD/imgs/D0443_05HD_0226.png'
p258
aS'/Volumes/nyee/datasets/frcnn_data/D0443_05HD/imgs/D0443_05HD_0034.png'
p259
aS'/Volumes/nyee/datasets/frcnn_data/D008_03HD/imgs/D008_03HD_0109.png'
p260
aS'/Volumes/nyee/datasets/frcnn_data/D0442_06HD/imgs/D0442_06HD_0080.png'
p261
aS'/Volumes/nyee/datasets/frcnn_data/D0442_06HD/imgs/D0442_06HD_0068.png'
p262
aS'/Volumes/nyee/datasets/frcnn_data/D008_03HD/imgs/D008_03HD_0026.png'
p263
aS'/Volumes/nyee/datasets/frcnn_data/D008_03HD/imgs/D008_03HD_0098.png'
p264
aS'/Volumes/nyee/datasets/frcnn_data/D008_03HD/imgs/D008_03HD_0268.png'
p265
aS'/Volumes/nyee/datasets/frcnn_data/D0232_04HD/imgs/D0232_04HD_0055.png'
p266
aS'/Volumes/nyee/datasets/frcnn_data/D0232_04HD/imgs/D0232_04HD_0255.png'
p267
aS'/Volumes/nyee/datasets/frcnn_data/D0443_05HD/imgs/D0443_05HD_0305.png'
p268
aS'/Volumes/nyee/datasets/frcnn_data/D0442_06HD/imgs/D0442_06HD_0144.png'
p269
aS'/Volumes/nyee/datasets/frcnn_data/D0443_05HD/imgs/D0443_05HD_0285.png'
p270
aS'/Volumes/nyee/datasets/frcnn_data/D0232_04HD/imgs/D0232_04HD_0238.png'
p271
aS'/Volumes/nyee/datasets/frcnn_data/D0232_04HD/imgs/D0232_04HD_0304.png'
p272
aS'/Volumes/nyee/datasets/frcnn_data/D0443_05HD/imgs/D0443_05HD_0220.png'
p273
aS'/Volumes/nyee/datasets/frcnn_data/D0232_04HD/imgs/D0232_04HD_0170.png'
p274
aS'/Volumes/nyee/datasets/frcnn_data/D0443_05HD/imgs/D0443_05HD_0368.png'
p275
aS'/Volumes/nyee/datasets/frcnn_data/D0673_04HD/imgs/D0673_04HD_0101.png'
p276
aS'/Volumes/nyee/datasets/frcnn_data/D0442_06HD/imgs/D0442_06HD_0352.png'
p277
aS'/Volumes/nyee/datasets/frcnn_data/D0442_06HD/imgs/D0442_06HD_0112.png'
p278
aS'/Volumes/nyee/datasets/frcnn_data/D0443_05HD/imgs/D0443_05HD_0207.png'
p279
aS'/Volumes/nyee/datasets/frcnn_data/D0673_04HD/imgs/D0673_04HD_0160.png'
p280
aS'/Volumes/nyee/datasets/frcnn_data/D0442_06HD/imgs/D0442_06HD_0161.png'
p281
aS'/Volumes/nyee/datasets/frcnn_data/D0232_04HD/imgs/D0232_04HD_0267.png'
p282
aS'/Volumes/nyee/datasets/frcnn_data/D0232_04HD/imgs/D0232_04HD_0183.png'
p283
aS'/Volumes/nyee/datasets/frcnn_data/D008_03HD/imgs/D008_03HD_0024.png'
p284
aS'/Volumes/nyee/datasets/frcnn_data/D008_03HD/imgs/D008_03HD_0038.png'
p285
aS'/Volumes/nyee/datasets/frcnn_data/D0673_04HD/imgs/D0673_04HD_0180.png'
p286
aS'/Volumes/nyee/datasets/frcnn_data/D0443_05HD/imgs/D0443_05HD_0312.png'
p287
aS'/Volumes/nyee/datasets/frcnn_data/D0232_04HD/imgs/D0232_04HD_0342.png'
p288
aS'/Volumes/nyee/datasets/frcnn_data/D0232_04HD/imgs/D0232_04HD_0257.png'
p289
aS'/Volumes/nyee/datasets/frcnn_data/D0673_04HD/imgs/D0673_04HD_0157.png'
p290
aS'/Volumes/nyee/datasets/frcnn_data/D0232_04HD/imgs/D0232_04HD_0225.png'
p291
aS'/Volumes/nyee/datasets/frcnn_data/D0442_06HD/imgs/D0442_06HD_0151.png'
p292
aS'/Volumes/nyee/datasets/frcnn_data/D0673_04HD/imgs/D0673_04HD_0253.png'
p293
aS'/Volumes/nyee/datasets/frcnn_data/D0232_04HD/imgs/D0232_04HD_0320.png'
p294
aS'/Volumes/nyee/datasets/frcnn_data/D0232_04HD/imgs/D0232_04HD_0206.png'
p295
aS'/Volumes/nyee/datasets/frcnn_data/D008_03HD/imgs/D008_03HD_0150.png'
p296
aS'/Volumes/nyee/datasets/frcnn_data/D0442_06HD/imgs/D0442_06HD_0111.png'
p297
aS'/Volumes/nyee/datasets/frcnn_data/D0673_04HD/imgs/D0673_04HD_0224.png'
p298
aS'/Volumes/nyee/datasets/frcnn_data/D0442_06HD/imgs/D0442_06HD_0378.png'
p299
aS'/Volumes/nyee/datasets/frcnn_data/D008_03HD/imgs/D008_03HD_0168.png'
p300
aS'/Volumes/nyee/datasets/frcnn_data/D0232_04HD/imgs/D0232_04HD_0277.png'
p301
aS'/Volumes/nyee/datasets/frcnn_data/D0442_06HD/imgs/D0442_06HD_0339.png'
p302
aS'/Volumes/nyee/datasets/frcnn_data/D0232_04HD/imgs/D0232_04HD_0036.png'
p303
aS'/Volumes/nyee/datasets/frcnn_data/D0443_05HD/imgs/D0443_05HD_0234.png'
p304
aS'/Volumes/nyee/datasets/frcnn_data/D0442_06HD/imgs/D0442_06HD_0168.png'
p305
aS'/Volumes/nyee/datasets/frcnn_data/D0443_05HD/imgs/D0443_05HD_0262.png'
p306
aS'/Volumes/nyee/datasets/frcnn_data/D0443_05HD/imgs/D0443_05HD_0308.png'
p307
aS'/Volumes/nyee/datasets/frcnn_data/D0673_04HD/imgs/D0673_04HD_0015.png'
p308
aS'/Volumes/nyee/datasets/frcnn_data/D008_03HD/imgs/D008_03HD_0079.png'
p309
aS'/Volumes/nyee/datasets/frcnn_data/D0232_04HD/imgs/D0232_04HD_0174.png'
p310
aS'/Volumes/nyee/datasets/frcnn_data/D0443_05HD/imgs/D0443_05HD_0103.png'
p311
aS'/Volumes/nyee/datasets/frcnn_data/D0673_04HD/imgs/D0673_04HD_0255.png'
p312
aS'/Volumes/nyee/datasets/frcnn_data/D0443_05HD/imgs/D0443_05HD_0203.png'
p313
aS'/Volumes/nyee/datasets/frcnn_data/D008_03HD/imgs/D008_03HD_0280.png'
p314
aS'/Volumes/nyee/datasets/frcnn_data/D0232_04HD/imgs/D0232_04HD_0223.png'
p315
aS'/Volumes/nyee/datasets/frcnn_data/D0232_04HD/imgs/D0232_04HD_0298.png'
p316
aS'/Volumes/nyee/datasets/frcnn_data/D0442_06HD/imgs/D0442_06HD_0054.png'
p317
aS'/Volumes/nyee/datasets/frcnn_data/D0443_05HD/imgs/D0443_05HD_0055.png'
p318
aS'/Volumes/nyee/datasets/frcnn_data/D0442_06HD/imgs/D0442_06HD_0340.png'
p319
aS'/Volumes/nyee/datasets/frcnn_data/D008_03HD/imgs/D008_03HD_0137.png'
p320
aS'/Volumes/nyee/datasets/frcnn_data/D0673_04HD/imgs/D0673_04HD_0129.png'
p321
aS'/Volumes/nyee/datasets/frcnn_data/D0673_04HD/imgs/D0673_04HD_0108.png'
p322
aS'/Volumes/nyee/datasets/frcnn_data/D0232_04HD/imgs/D0232_04HD_0065.png'
p323
aS'/Volumes/nyee/datasets/frcnn_data/D008_03HD/imgs/D008_03HD_0147.png'
p324
aS'/Volumes/nyee/datasets/frcnn_data/D008_03HD/imgs/D008_03HD_0212.png'
p325
aS'/Volumes/nyee/datasets/frcnn_data/D0673_04HD/imgs/D0673_04HD_0149.png'
p326
aS'/Volumes/nyee/datasets/frcnn_data/D0442_06HD/imgs/D0442_06HD_0324.png'
p327
aS'/Volumes/nyee/datasets/frcnn_data/D0442_06HD/imgs/D0442_06HD_0036.png'
p328
aS'/Volumes/nyee/datasets/frcnn_data/D0232_04HD/imgs/D0232_04HD_0263.png'
p329
aS'/Volumes/nyee/datasets/frcnn_data/D0442_06HD/imgs/D0442_06HD_0284.png'
p330
aS'/Volumes/nyee/datasets/frcnn_data/D0443_05HD/imgs/D0443_05HD_0360.png'
p331
aS'/Volumes/nyee/datasets/frcnn_data/D0673_04HD/imgs/D0673_04HD_0151.png'
p332
aS'/Volumes/nyee/datasets/frcnn_data/D0673_04HD/imgs/D0673_04HD_0257.png'
p333
aS'/Volumes/nyee/datasets/frcnn_data/D008_03HD/imgs/D008_03HD_0340.png'
p334
aS'/Volumes/nyee/datasets/frcnn_data/D0673_04HD/imgs/D0673_04HD_0169.png'
p335
aS'/Volumes/nyee/datasets/frcnn_data/D0442_06HD/imgs/D0442_06HD_0298.png'
p336
aS'/Volumes/nyee/datasets/frcnn_data/D0232_04HD/imgs/D0232_04HD_0202.png'
p337
aS'/Volumes/nyee/datasets/frcnn_data/D0443_05HD/imgs/D0443_05HD_0151.png'
p338
aS'/Volumes/nyee/datasets/frcnn_data/D0442_06HD/imgs/D0442_06HD_0041.png'
p339
aS'/Volumes/nyee/datasets/frcnn_data/D0232_04HD/imgs/D0232_04HD_0159.png'
p340
aS'/Volumes/nyee/datasets/frcnn_data/D0232_04HD/imgs/D0232_04HD_0285.png'
p341
aS'/Volumes/nyee/datasets/frcnn_data/D0443_05HD/imgs/D0443_05HD_0232.png'
p342
aS'/Volumes/nyee/datasets/frcnn_data/D0232_04HD/imgs/D0232_04HD_0104.png'
p343
aS'/Volumes/nyee/datasets/frcnn_data/D0442_06HD/imgs/D0442_06HD_0290.png'
p344
aS'/Volumes/nyee/datasets/frcnn_data/D0673_04HD/imgs/D0673_04HD_0072.png'
p345
aS'/Volumes/nyee/datasets/frcnn_data/D0442_06HD/imgs/D0442_06HD_0356.png'
p346
aS'/Volumes/nyee/datasets/frcnn_data/D0442_06HD/imgs/D0442_06HD_0085.png'
p347
aS'/Volumes/nyee/datasets/frcnn_data/D0442_06HD/imgs/D0442_06HD_0125.png'
p348
aS'/Volumes/nyee/datasets/frcnn_data/D0443_05HD/imgs/D0443_05HD_0266.png'
p349
aS'/Volumes/nyee/datasets/frcnn_data/D0673_04HD/imgs/D0673_04HD_0005.png'
p350
aS'/Volumes/nyee/datasets/frcnn_data/D0232_04HD/imgs/D0232_04HD_0330.png'
p351
aS'/Volumes/nyee/datasets/frcnn_data/D0673_04HD/imgs/D0673_04HD_0074.png'
p352
aS'/Volumes/nyee/datasets/frcnn_data/D008_03HD/imgs/D008_03HD_0139.png'
p353
aS'/Volumes/nyee/datasets/frcnn_data/D0443_05HD/imgs/D0443_05HD_0215.png'
p354
aS'/Volumes/nyee/datasets/frcnn_data/D0442_06HD/imgs/D0442_06HD_0090.png'
p355
aS'/Volumes/nyee/datasets/frcnn_data/D0232_04HD/imgs/D0232_04HD_0250.png'
p356
aS'/Volumes/nyee/datasets/frcnn_data/D0442_06HD/imgs/D0442_06HD_0317.png'
p357
aS'/Volumes/nyee/datasets/frcnn_data/D0232_04HD/imgs/D0232_04HD_0002.png'
p358
aS'/Volumes/nyee/datasets/frcnn_data/D0232_04HD/imgs/D0232_04HD_0192.png'
p359
aS'/Volumes/nyee/datasets/frcnn_data/D0442_06HD/imgs/D0442_06HD_0073.png'
p360
aS'/Volumes/nyee/datasets/frcnn_data/D008_03HD/imgs/D008_03HD_0071.png'
p361
aS'/Volumes/nyee/datasets/frcnn_data/D008_03HD/imgs/D008_03HD_0278.png'
p362
aS'/Volumes/nyee/datasets/frcnn_data/D0232_04HD/imgs/D0232_04HD_0075.png'
p363
aS'/Volumes/nyee/datasets/frcnn_data/D0673_04HD/imgs/D0673_04HD_0054.png'
p364
aS'/Volumes/nyee/datasets/frcnn_data/D0442_06HD/imgs/D0442_06HD_0004.png'
p365
aS'/Volumes/nyee/datasets/frcnn_data/D0443_05HD/imgs/D0443_05HD_0029.png'
p366
aS'/Volumes/nyee/datasets/frcnn_data/D0442_06HD/imgs/D0442_06HD_0152.png'
p367
aS'/Volumes/nyee/datasets/frcnn_data/D0673_04HD/imgs/D0673_04HD_0034.png'
p368
aS'/Volumes/nyee/datasets/frcnn_data/D0442_06HD/imgs/D0442_06HD_0209.png'
p369
aS'/Volumes/nyee/datasets/frcnn_data/D0673_04HD/imgs/D0673_04HD_0063.png'
p370
aS'/Volumes/nyee/datasets/frcnn_data/D0442_06HD/imgs/D0442_06HD_0307.png'
p371
aS'/Volumes/nyee/datasets/frcnn_data/D0232_04HD/imgs/D0232_04HD_0240.png'
p372
aS'/Volumes/nyee/datasets/frcnn_data/D0442_06HD/imgs/D0442_06HD_0131.png'
p373
aS'/Volumes/nyee/datasets/frcnn_data/D008_03HD/imgs/D008_03HD_0131.png'
p374
aS'/Volumes/nyee/datasets/frcnn_data/D0443_05HD/imgs/D0443_05HD_0184.png'
p375
aS'/Volumes/nyee/datasets/frcnn_data/D0443_05HD/imgs/D0443_05HD_0327.png'
p376
aS'/Volumes/nyee/datasets/frcnn_data/D0673_04HD/imgs/D0673_04HD_0128.png'
p377
aS'/Volumes/nyee/datasets/frcnn_data/D0443_05HD/imgs/D0443_05HD_0281.png'
p378
aS'/Volumes/nyee/datasets/frcnn_data/D008_03HD/imgs/D008_03HD_0143.png'
p379
aS'/Volumes/nyee/datasets/frcnn_data/D008_03HD/imgs/D008_03HD_00-00-05.png'
p380
aS'/Volumes/nyee/datasets/frcnn_data/D0232_04HD/imgs/D0232_04HD_0326.png'
p381
aS'/Volumes/nyee/datasets/frcnn_data/D0443_05HD/imgs/D0443_05HD_0321.png'
p382
aS'/Volumes/nyee/datasets/frcnn_data/D008_03HD/imgs/D008_03HD_0112.png'
p383
aS'/Volumes/nyee/datasets/frcnn_data/D0443_05HD/imgs/D0443_05HD_0217.png'
p384
aS'/Volumes/nyee/datasets/frcnn_data/D0443_05HD/imgs/D0443_05HD_0082.png'
p385
aS'/Volumes/nyee/datasets/frcnn_data/D0673_04HD/imgs/D0673_04HD_0100.png'
p386
aS'/Volumes/nyee/datasets/frcnn_data/D0443_05HD/imgs/D0443_05HD_0112.png'
p387
aS'/Volumes/nyee/datasets/frcnn_data/D0673_04HD/imgs/D0673_04HD_0091.png'
p388
aS'/Volumes/nyee/datasets/frcnn_data/D0442_06HD/imgs/D0442_06HD_0148.png'
p389
aS'/Volumes/nyee/datasets/frcnn_data/D008_03HD/imgs/D008_03HD_0303.png'
p390
aS'/Volumes/nyee/datasets/frcnn_data/D0443_05HD/imgs/D0443_05HD_0306.png'
p391
aS'/Volumes/nyee/datasets/frcnn_data/D008_03HD/imgs/D008_03HD_0073.png'
p392
aS'/Volumes/nyee/datasets/frcnn_data/D008_03HD/imgs/D008_03HD_0103.png'
p393
aS'/Volumes/nyee/datasets/frcnn_data/D008_03HD/imgs/D008_03HD_0246.png'
p394
aS'/Volumes/nyee/datasets/frcnn_data/D0443_05HD/imgs/D0443_05HD_0295.png'
p395
aS'/Volumes/nyee/datasets/frcnn_data/D0442_06HD/imgs/D0442_06HD_0193.png'
p396
aS'/Volumes/nyee/datasets/frcnn_data/D0232_04HD/imgs/D0232_04HD_0246.png'
p397
aS'/Volumes/nyee/datasets/frcnn_data/D0443_05HD/imgs/D0443_05HD_0335.png'
p398
aS'/Volumes/nyee/datasets/frcnn_data/D0673_04HD/imgs/D0673_04HD_0147.png'
p399
aS'/Volumes/nyee/datasets/frcnn_data/D0443_05HD/imgs/D0443_05HD_0126.png'
p400
aS'/Volumes/nyee/datasets/frcnn_data/D0442_06HD/imgs/D0442_06HD_0226.png'
p401
aS'/Volumes/nyee/datasets/frcnn_data/D0443_05HD/imgs/D0443_05HD_0272.png'
p402
aS'/Volumes/nyee/datasets/frcnn_data/D0443_05HD/imgs/D0443_05HD_0048.png'
p403
aS'/Volumes/nyee/datasets/frcnn_data/D008_03HD/imgs/D008_03HD_0010.png'
p404
aS'/Volumes/nyee/datasets/frcnn_data/D0673_04HD/imgs/D0673_04HD_0121.png'
p405
aS'/Volumes/nyee/datasets/frcnn_data/D0443_05HD/imgs/D0443_05HD_0061.png'
p406
aS'/Volumes/nyee/datasets/frcnn_data/D0232_04HD/imgs/D0232_04HD_0302.png'
p407
aS'/Volumes/nyee/datasets/frcnn_data/D0442_06HD/imgs/D0442_06HD_0077.png'
p408
aS'/Volumes/nyee/datasets/frcnn_data/D008_03HD/imgs/D008_03HD_0075.png'
p409
aS'/Volumes/nyee/datasets/frcnn_data/D008_03HD/imgs/D008_03HD_0110.png'
p410
aS'/Volumes/nyee/datasets/frcnn_data/D0232_04HD/imgs/D0232_04HD_0050.png'
p411
aS'/Volumes/nyee/datasets/frcnn_data/D0232_04HD/imgs/D0232_04HD_0164.png'
p412
aS'/Volumes/nyee/datasets/frcnn_data/D0442_06HD/imgs/D0442_06HD_0278.png'
p413
aS'/Volumes/nyee/datasets/frcnn_data/D008_03HD/imgs/D008_03HD_0318.png'
p414
aS'/Volumes/nyee/datasets/frcnn_data/D0673_04HD/imgs/D0673_04HD_0106.png'
p415
aS'/Volumes/nyee/datasets/frcnn_data/D008_03HD/imgs/D008_03HD_0057.png'
p416
aS'/Volumes/nyee/datasets/frcnn_data/D0443_05HD/imgs/D0443_05HD_0329.png'
p417
aS'/Volumes/nyee/datasets/frcnn_data/D008_03HD/imgs/D008_03HD_0265.png'
p418
aS'/Volumes/nyee/datasets/frcnn_data/D008_03HD/imgs/D008_03HD_0092.png'
p419
aS'/Volumes/nyee/datasets/frcnn_data/D008_03HD/imgs/D008_03HD_0192.png'
p420
aS'/Volumes/nyee/datasets/frcnn_data/D0442_06HD/imgs/D0442_06HD_0236.png'
p421
aS'/Volumes/nyee/datasets/frcnn_data/D0232_04HD/imgs/D0232_04HD_0286.png'
p422
aS'/Volumes/nyee/datasets/frcnn_data/D0443_05HD/imgs/D0443_05HD_0058.png'
p423
aS'/Volumes/nyee/datasets/frcnn_data/D0232_04HD/imgs/D0232_04HD_0143.png'
p424
aS'/Volumes/nyee/datasets/frcnn_data/D0232_04HD/imgs/D0232_04HD_0258.png'
p425
aS'/Volumes/nyee/datasets/frcnn_data/D0232_04HD/imgs/D0232_04HD_0244.png'
p426
aS'/Volumes/nyee/datasets/frcnn_data/D0232_04HD/imgs/D0232_04HD_0134.png'
p427
aS'/Volumes/nyee/datasets/frcnn_data/D008_03HD/imgs/D008_03HD_0030.png'
p428
aS'/Volumes/nyee/datasets/frcnn_data/D008_03HD/imgs/D008_03HD_0005.png'
p429
aS'/Volumes/nyee/datasets/frcnn_data/D008_03HD/imgs/D008_03HD_0183.png'
p430
aS'/Volumes/nyee/datasets/frcnn_data/D0442_06HD/imgs/D0442_06HD_0329.png'
p431
aS'/Volumes/nyee/datasets/frcnn_data/D008_03HD/imgs/D008_03HD_0171.png'
p432
aS'/Volumes/nyee/datasets/frcnn_data/D0232_04HD/imgs/D0232_04HD_0019.png'
p433
aS'/Volumes/nyee/datasets/frcnn_data/D008_03HD/imgs/D008_03HD_0152.png'
p434
aS'/Volumes/nyee/datasets/frcnn_data/D0232_04HD/imgs/D0232_04HD_0328.png'
p435
aS'/Volumes/nyee/datasets/frcnn_data/D0232_04HD/imgs/D0232_04HD_0121.png'
p436
aS'/Volumes/nyee/datasets/frcnn_data/D008_03HD/imgs/D008_03HD_0027.png'
p437
aS'/Volumes/nyee/datasets/frcnn_data/D0232_04HD/imgs/D0232_04HD_0339.png'
p438
aS'/Volumes/nyee/datasets/frcnn_data/D0442_06HD/imgs/D0442_06HD_0255.png'
p439
aS'/Volumes/nyee/datasets/frcnn_data/D008_03HD/imgs/D008_03HD_0329.png'
p440
aS'/Volumes/nyee/datasets/frcnn_data/D0443_05HD/imgs/D0443_05HD_0178.png'
p441
aS'/Volumes/nyee/datasets/frcnn_data/D0442_06HD/imgs/D0442_06HD_0050.png'
p442
aS'/Volumes/nyee/datasets/frcnn_data/D0442_06HD/imgs/D0442_06HD_0309.png'
p443
aS'/Volumes/nyee/datasets/frcnn_data/D0673_04HD/imgs/D0673_04HD_0095.png'
p444
aS'/Volumes/nyee/datasets/frcnn_data/D008_03HD/imgs/D008_03HD_0111.png'
p445
aS'/Volumes/nyee/datasets/frcnn_data/D0442_06HD/imgs/D0442_06HD_0014.png'
p446
aS'/Volumes/nyee/datasets/frcnn_data/D0443_05HD/imgs/D0443_05HD_0090.png'
p447
aS'/Volumes/nyee/datasets/frcnn_data/D0232_04HD/imgs/D0232_04HD_0294.png'
p448
aS'/Volumes/nyee/datasets/frcnn_data/D0673_04HD/imgs/D0673_04HD_0085.png'
p449
aS'/Volumes/nyee/datasets/frcnn_data/D008_03HD/imgs/D008_03HD_0342.png'
p450
aS'/Volumes/nyee/datasets/frcnn_data/D0443_05HD/imgs/D0443_05HD_0153.png'
p451
aS'/Volumes/nyee/datasets/frcnn_data/D0232_04HD/imgs/D0232_04HD_0219.png'
p452
aS'/Volumes/nyee/datasets/frcnn_data/D0442_06HD/imgs/D0442_06HD_0145.png'
p453
aS'/Volumes/nyee/datasets/frcnn_data/D0442_06HD/imgs/D0442_06HD_0026.png'
p454
aS'/Volumes/nyee/datasets/frcnn_data/D008_03HD/imgs/D008_03HD_0049.png'
p455
aS'/Volumes/nyee/datasets/frcnn_data/D0442_06HD/imgs/D0442_06HD_0251.png'
p456
aS'/Volumes/nyee/datasets/frcnn_data/D0442_06HD/imgs/D0442_06HD_0327.png'
p457
aS'/Volumes/nyee/datasets/frcnn_data/D0442_06HD/imgs/D0442_06HD_0294.png'
p458
aS'/Volumes/nyee/datasets/frcnn_data/D008_03HD/imgs/D008_03HD_0096.png'
p459
aS'/Volumes/nyee/datasets/frcnn_data/D0232_04HD/imgs/D0232_04HD_0136.png'
p460
aS'/Volumes/nyee/datasets/frcnn_data/D008_03HD/imgs/D008_03HD_0177.png'
p461
aS'/Volumes/nyee/datasets/frcnn_data/D0443_05HD/imgs/D0443_05HD_0099.png'
p462
aS'/Volumes/nyee/datasets/frcnn_data/D008_03HD/imgs/D008_03HD_0291.png'
p463
aS'/Volumes/nyee/datasets/frcnn_data/D0443_05HD/imgs/D0443_05HD_0348.png'
p464
aS'/Volumes/nyee/datasets/frcnn_data/D0673_04HD/imgs/D0673_04HD_0076.png'
p465
aS'/Volumes/nyee/datasets/frcnn_data/D0442_06HD/imgs/D0442_06HD_0089.png'
p466
aS'/Volumes/nyee/datasets/frcnn_data/D0232_04HD/imgs/D0232_04HD_0079.png'
p467
aS'/Volumes/nyee/datasets/frcnn_data/D0673_04HD/imgs/D0673_04HD_0009.png'
p468
aS'/Volumes/nyee/datasets/frcnn_data/D0673_04HD/imgs/D0673_04HD_0022.png'
p469
aS'/Volumes/nyee/datasets/frcnn_data/D0232_04HD/imgs/D0232_04HD_0343.png'
p470
aS'/Volumes/nyee/datasets/frcnn_data/D0442_06HD/imgs/D0442_06HD_0094.png'
p471
aS'/Volumes/nyee/datasets/frcnn_data/D0232_04HD/imgs/D0232_04HD_0193.png'
p472
aS'/Volumes/nyee/datasets/frcnn_data/D0673_04HD/imgs/D0673_04HD_0246.png'
p473
aS'/Volumes/nyee/datasets/frcnn_data/D008_03HD/imgs/D008_03HD_0292.png'
p474
aS'/Volumes/nyee/datasets/frcnn_data/D0443_05HD/imgs/D0443_05HD_0342.png'
p475
aS'/Volumes/nyee/datasets/frcnn_data/D008_03HD/imgs/D008_03HD_0273.png'
p476
aS'/Volumes/nyee/datasets/frcnn_data/D0442_06HD/imgs/D0442_06HD_0110.png'
p477
aS'/Volumes/nyee/datasets/frcnn_data/D0673_04HD/imgs/D0673_04HD_0223.png'
p478
aS'/Volumes/nyee/datasets/frcnn_data/D0442_06HD/imgs/D0442_06HD_0232.png'
p479
aS'/Volumes/nyee/datasets/frcnn_data/D0442_06HD/imgs/D0442_06HD_0222.png'
p480
aS'/Volumes/nyee/datasets/frcnn_data/D0232_04HD/imgs/D0232_04HD_0382.png'
p481
aS'/Volumes/nyee/datasets/frcnn_data/D0232_04HD/imgs/D0232_04HD_0362.png'
p482
aS'/Volumes/nyee/datasets/frcnn_data/D0442_06HD/imgs/D0442_06HD_0135.png'
p483
aS'/Volumes/nyee/datasets/frcnn_data/D008_03HD/imgs/D008_03HD_0156.png'
p484
aS'/Volumes/nyee/datasets/frcnn_data/D0232_04HD/imgs/D0232_04HD_0378.png'
p485
aS'/Volumes/nyee/datasets/frcnn_data/D0232_04HD/imgs/D0232_04HD_0089.png'
p486
aS'/Volumes/nyee/datasets/frcnn_data/D0442_06HD/imgs/D0442_06HD_0268.png'
p487
aS'/Volumes/nyee/datasets/frcnn_data/D0442_06HD/imgs/D0442_06HD_0128.png'
p488
aS'/Volumes/nyee/datasets/frcnn_data/D0443_05HD/imgs/D0443_05HD_0255.png'
p489
aS'/Volumes/nyee/datasets/frcnn_data/D0442_06HD/imgs/D0442_06HD_0274.png'
p490
aS'/Volumes/nyee/datasets/frcnn_data/D0443_05HD/imgs/D0443_05HD_0024.png'
p491
aS'/Volumes/nyee/datasets/frcnn_data/D008_03HD/imgs/D008_03HD_0275.png'
p492
aS'/Volumes/nyee/datasets/frcnn_data/D008_03HD/imgs/D008_03HD_0082.png'
p493
aS'/Volumes/nyee/datasets/frcnn_data/D0232_04HD/imgs/D0232_04HD_0354.png'
p494
aS'/Volumes/nyee/datasets/frcnn_data/D0673_04HD/imgs/D0673_04HD_0115.png'
p495
aS'/Volumes/nyee/datasets/frcnn_data/D0443_05HD/imgs/D0443_05HD_0264.png'
p496
aS'/Volumes/nyee/datasets/frcnn_data/D0232_04HD/imgs/D0232_04HD_0151.png'
p497
aS'/Volumes/nyee/datasets/frcnn_data/D008_03HD/imgs/D008_03HD_0204.png'
p498
aS'/Volumes/nyee/datasets/frcnn_data/D0443_05HD/imgs/D0443_05HD_0317.png'
p499
aS'/Volumes/nyee/datasets/frcnn_data/D0443_05HD/imgs/D0443_05HD_0037.png'
p500
aS'/Volumes/nyee/datasets/frcnn_data/D008_03HD/imgs/D008_03HD_0184.png'
p501
aS'/Volumes/nyee/datasets/frcnn_data/D0232_04HD/imgs/D0232_04HD_0341.png'
p502
aS'/Volumes/nyee/datasets/frcnn_data/D0443_05HD/imgs/D0443_05HD_0113.png'
p503
aS'/Volumes/nyee/datasets/frcnn_data/D0443_05HD/imgs/D0443_05HD_0367.png'
p504
aS'/Volumes/nyee/datasets/frcnn_data/D0232_04HD/imgs/D0232_04HD_0195.png'
p505
aS'/Volumes/nyee/datasets/frcnn_data/D0232_04HD/imgs/D0232_04HD_0211.png'
p506
aS'/Volumes/nyee/datasets/frcnn_data/D0442_06HD/imgs/D0442_06HD_0106.png'
p507
aS'/Volumes/nyee/datasets/frcnn_data/D0673_04HD/imgs/D0673_04HD_0237.png'
p508
aS'/Volumes/nyee/datasets/frcnn_data/D0232_04HD/imgs/D0232_04HD_0299.png'
p509
aS'/Volumes/nyee/datasets/frcnn_data/D0443_05HD/imgs/D0443_05HD_0263.png'
p510
aS'/Volumes/nyee/datasets/frcnn_data/D0673_04HD/imgs/D0673_04HD_0228.png'
p511
aS'/Volumes/nyee/datasets/frcnn_data/D0443_05HD/imgs/D0443_05HD_0241.png'
p512
aS'/Volumes/nyee/datasets/frcnn_data/D0673_04HD/imgs/D0673_04HD_0153.png'
p513
aS'/Volumes/nyee/datasets/frcnn_data/D008_03HD/imgs/D008_03HD_0218.png'
p514
aS'/Volumes/nyee/datasets/frcnn_data/D0443_05HD/imgs/D0443_05HD_0009.png'
p515
aS'/Volumes/nyee/datasets/frcnn_data/D0673_04HD/imgs/D0673_04HD_0069.png'
p516
aS'/Volumes/nyee/datasets/frcnn_data/D0443_05HD/imgs/D0443_05HD_0218.png'
p517
aS'/Volumes/nyee/datasets/frcnn_data/D008_03HD/imgs/D008_03HD_0052.png'
p518
aS'/Volumes/nyee/datasets/frcnn_data/D008_03HD/imgs/D008_03HD_0356.png'
p519
aS'/Volumes/nyee/datasets/frcnn_data/D008_03HD/imgs/D008_03HD_0014.png'
p520
aS'/Volumes/nyee/datasets/frcnn_data/D0443_05HD/imgs/D0443_05HD_0136.png'
p521
aS'/Volumes/nyee/datasets/frcnn_data/D008_03HD/imgs/D008_03HD_0141.png'
p522
aS'/Volumes/nyee/datasets/frcnn_data/D0673_04HD/imgs/D0673_04HD_0196.png'
p523
aS'/Volumes/nyee/datasets/frcnn_data/D008_03HD/imgs/D008_03HD_0068.png'
p524
aS'/Volumes/nyee/datasets/frcnn_data/D0232_04HD/imgs/D0232_04HD_0045.png'
p525
aS'/Volumes/nyee/datasets/frcnn_data/D0232_04HD/imgs/D0232_04HD_0160.png'
p526
aS'/Volumes/nyee/datasets/frcnn_data/D008_03HD/imgs/D008_03HD_0304.png'
p527
aS'/Volumes/nyee/datasets/frcnn_data/D0443_05HD/imgs/D0443_05HD_0115.png'
p528
aS'/Volumes/nyee/datasets/frcnn_data/D0232_04HD/imgs/D0232_04HD_0213.png'
p529
aS'/Volumes/nyee/datasets/frcnn_data/D008_03HD/imgs/D008_03HD_0296.png'
p530
aS'/Volumes/nyee/datasets/frcnn_data/D0232_04HD/imgs/D0232_04HD_0124.png'
p531
aS'/Volumes/nyee/datasets/frcnn_data/D0232_04HD/imgs/D0232_04HD_0366.png'
p532
aS'/Volumes/nyee/datasets/frcnn_data/D0442_06HD/imgs/D0442_06HD_0139.png'
p533
aS'/Volumes/nyee/datasets/frcnn_data/D008_03HD/imgs/D008_03HD_0146.png'
p534
aS'/Volumes/nyee/datasets/frcnn_data/D0443_05HD/imgs/D0443_05HD_0086.png'
p535
aS'/Volumes/nyee/datasets/frcnn_data/D008_03HD/imgs/D008_03HD_0124.png'
p536
aS'/Volumes/nyee/datasets/frcnn_data/D0232_04HD/imgs/D0232_04HD_0116.png'
p537
aS'/Volumes/nyee/datasets/frcnn_data/D008_03HD/imgs/D008_03HD_0179.png'
p538
aS'/Volumes/nyee/datasets/frcnn_data/D0442_06HD/imgs/D0442_06HD_0066.png'
p539
aS'/Volumes/nyee/datasets/frcnn_data/D0442_06HD/imgs/D0442_06HD_0028.png'
p540
aS'/Volumes/nyee/datasets/frcnn_data/D008_03HD/imgs/D008_03HD_0009.png'
p541
aS'/Volumes/nyee/datasets/frcnn_data/D0443_05HD/imgs/D0443_05HD_0311.png'
p542
aS'/Volumes/nyee/datasets/frcnn_data/D0442_06HD/imgs/D0442_06HD_0367.png'
p543
aS'/Volumes/nyee/datasets/frcnn_data/D0442_06HD/imgs/D0442_06HD_0003.png'
p544
aS'/Volumes/nyee/datasets/frcnn_data/D008_03HD/imgs/D008_03HD_0033.png'
p545
aS'/Volumes/nyee/datasets/frcnn_data/D0232_04HD/imgs/D0232_04HD_0270.png'
p546
aS'/Volumes/nyee/datasets/frcnn_data/D0442_06HD/imgs/D0442_06HD_0140.png'
p547
aS'/Volumes/nyee/datasets/frcnn_data/D008_03HD/imgs/D008_03HD_0236.png'
p548
aS'/Volumes/nyee/datasets/frcnn_data/D0442_06HD/imgs/D0442_06HD_0266.png'
p549
aS'/Volumes/nyee/datasets/frcnn_data/D0443_05HD/imgs/D0443_05HD_0067.png'
p550
aS'/Volumes/nyee/datasets/frcnn_data/D0442_06HD/imgs/D0442_06HD_0075.png'
p551
aS'/Volumes/nyee/datasets/frcnn_data/D0443_05HD/imgs/D0443_05HD_0363.png'
p552
aS'/Volumes/nyee/datasets/frcnn_data/D0673_04HD/imgs/D0673_04HD_0194.png'
p553
aS'/Volumes/nyee/datasets/frcnn_data/D0232_04HD/imgs/D0232_04HD_0215.png'
p554
aS'/Volumes/nyee/datasets/frcnn_data/D0673_04HD/imgs/D0673_04HD_0131.png'
p555
aS'/Volumes/nyee/datasets/frcnn_data/D008_03HD/imgs/D008_03HD_0254.png'
p556
aS'/Volumes/nyee/datasets/frcnn_data/D0443_05HD/imgs/D0443_05HD_0332.png'
p557
aS'/Volumes/nyee/datasets/frcnn_data/D0442_06HD/imgs/D0442_06HD_0173.png'
p558
aS'/Volumes/nyee/datasets/frcnn_data/D008_03HD/imgs/D008_03HD_0050.png'
p559
aS'/Volumes/nyee/datasets/frcnn_data/D0232_04HD/imgs/D0232_04HD_0237.png'
p560
aS'/Volumes/nyee/datasets/frcnn_data/D0442_06HD/imgs/D0442_06HD_0194.png'
p561
aS'/Volumes/nyee/datasets/frcnn_data/D0442_06HD/imgs/D0442_06HD_0130.png'
p562
aS'/Volumes/nyee/datasets/frcnn_data/D0673_04HD/imgs/D0673_04HD_0026.png'
p563
aS'/Volumes/nyee/datasets/frcnn_data/D0442_06HD/imgs/D0442_06HD_0102.png'
p564
aS'/Volumes/nyee/datasets/frcnn_data/D0232_04HD/imgs/D0232_04HD_0077.png'
p565
aS'/Volumes/nyee/datasets/frcnn_data/D0442_06HD/imgs/D0442_06HD_0319.png'
p566
aS'/Volumes/nyee/datasets/frcnn_data/D0442_06HD/imgs/D0442_06HD_0277.png'
p567
aS'/Volumes/nyee/datasets/frcnn_data/D0442_06HD/imgs/D0442_06HD_0072.png'
p568
aS'/Volumes/nyee/datasets/frcnn_data/D0442_06HD/imgs/D0442_06HD_0150.png'
p569
aS'/Volumes/nyee/datasets/frcnn_data/D0232_04HD/imgs/D0232_04HD_0327.png'
p570
aS'/Volumes/nyee/datasets/frcnn_data/D0442_06HD/imgs/D0442_06HD_0045.png'
p571
aS'/Volumes/nyee/datasets/frcnn_data/D0232_04HD/imgs/D0232_04HD_0265.png'
p572
aS'/Volumes/nyee/datasets/frcnn_data/D0443_05HD/imgs/D0443_05HD_0196.png'
p573
aS'/Volumes/nyee/datasets/frcnn_data/D0442_06HD/imgs/D0442_06HD_0304.png'
p574
aS'/Volumes/nyee/datasets/frcnn_data/D0232_04HD/imgs/D0232_04HD_0011.png'
p575
aS'/Volumes/nyee/datasets/frcnn_data/D0673_04HD/imgs/D0673_04HD_0080.png'
p576
aS'/Volumes/nyee/datasets/frcnn_data/D0232_04HD/imgs/D0232_04HD_0305.png'
p577
aS'/Volumes/nyee/datasets/frcnn_data/D008_03HD/imgs/D008_03HD_0284.png'
p578
aS'/Volumes/nyee/datasets/frcnn_data/D0673_04HD/imgs/D0673_04HD_0021.png'
p579
aS'/Volumes/nyee/datasets/frcnn_data/D0232_04HD/imgs/D0232_04HD_0098.png'
p580
aS'/Volumes/nyee/datasets/frcnn_data/D0673_04HD/imgs/D0673_04HD_0259.png'
p581
aS'/Volumes/nyee/datasets/frcnn_data/D0442_06HD/imgs/D0442_06HD_0228.png'
p582
aS'/Volumes/nyee/datasets/frcnn_data/D0673_04HD/imgs/D0673_04HD_0097.png'
p583
aS'/Volumes/nyee/datasets/frcnn_data/D0673_04HD/imgs/D0673_04HD_0001.png'
p584
aS'/Volumes/nyee/datasets/frcnn_data/D0442_06HD/imgs/D0442_06HD_0008.png'
p585
aS'/Volumes/nyee/datasets/frcnn_data/D0443_05HD/imgs/D0443_05HD_0208.png'
p586
aS'/Volumes/nyee/datasets/frcnn_data/D0673_04HD/imgs/D0673_04HD_0233.png'
p587
aS'/Volumes/nyee/datasets/frcnn_data/D0443_05HD/imgs/D0443_05HD_0330.png'
p588
aS'/Volumes/nyee/datasets/frcnn_data/D0673_04HD/imgs/D0673_04HD_0247.png'
p589
aS'/Volumes/nyee/datasets/frcnn_data/D0442_06HD/imgs/D0442_06HD_0207.png'
p590
aS'/Volumes/nyee/datasets/frcnn_data/D0442_06HD/imgs/D0442_06HD_0132.png'
p591
aS'/Volumes/nyee/datasets/frcnn_data/D0232_04HD/imgs/D0232_04HD_0139.png'
p592
aS'/Volumes/nyee/datasets/frcnn_data/D008_03HD/imgs/D008_03HD_0087.png'
p593
aS'/Volumes/nyee/datasets/frcnn_data/D008_03HD/imgs/D008_03HD_0244.png'
p594
aS'/Volumes/nyee/datasets/frcnn_data/D0443_05HD/imgs/D0443_05HD_0341.png'
p595
aS'/Volumes/nyee/datasets/frcnn_data/D0232_04HD/imgs/D0232_04HD_0067.png'
p596
aS'/Volumes/nyee/datasets/frcnn_data/D0443_05HD/imgs/D0443_05HD_0297.png'
p597
aS'/Volumes/nyee/datasets/frcnn_data/D0673_04HD/imgs/D0673_04HD_0090.png'
p598
aS'/Volumes/nyee/datasets/frcnn_data/D0232_04HD/imgs/D0232_04HD_0303.png'
p599
aS'/Volumes/nyee/datasets/frcnn_data/D0442_06HD/imgs/D0442_06HD_0158.png'
p600
aS'/Volumes/nyee/datasets/frcnn_data/D0673_04HD/imgs/D0673_04HD_0189.png'
p601
aS'/Volumes/nyee/datasets/frcnn_data/D0673_04HD/imgs/D0673_04HD_0075.png'
p602
aS'/Volumes/nyee/datasets/frcnn_data/D0673_04HD/imgs/D0673_04HD_0067.png'
p603
aS'/Volumes/nyee/datasets/frcnn_data/D0443_05HD/imgs/D0443_05HD_0075.png'
p604
aS'/Volumes/nyee/datasets/frcnn_data/D0442_06HD/imgs/D0442_06HD_0323.png'
p605
aS'/Volumes/nyee/datasets/frcnn_data/D0232_04HD/imgs/D0232_04HD_0085.png'
p606
aS'/Volumes/nyee/datasets/frcnn_data/D0232_04HD/imgs/D0232_04HD_0178.png'
p607
aS'/Volumes/nyee/datasets/frcnn_data/D0443_05HD/imgs/D0443_05HD_0372.png'
p608
aS'/Volumes/nyee/datasets/frcnn_data/D0673_04HD/imgs/D0673_04HD_0166.png'
p609
aS'/Volumes/nyee/datasets/frcnn_data/D0442_06HD/imgs/D0442_06HD_0118.png'
p610
aS'/Volumes/nyee/datasets/frcnn_data/D0673_04HD/imgs/D0673_04HD_0089.png'
p611
aS'/Volumes/nyee/datasets/frcnn_data/D0443_05HD/imgs/D0443_05HD_0018.png'
p612
aS'/Volumes/nyee/datasets/frcnn_data/D0673_04HD/imgs/D0673_04HD_0262.png'
p613
aS'/Volumes/nyee/datasets/frcnn_data/D0443_05HD/imgs/D0443_05HD_0164.png'
p614
aS'/Volumes/nyee/datasets/frcnn_data/D0232_04HD/imgs/D0232_04HD_0118.png'
p615
aS'/Volumes/nyee/datasets/frcnn_data/D008_03HD/imgs/D008_03HD_0313.png'
p616
aS'/Volumes/nyee/datasets/frcnn_data/D008_03HD/imgs/D008_03HD_0122.png'
p617
aS'/Volumes/nyee/datasets/frcnn_data/D0442_06HD/imgs/D0442_06HD_0190.png'
p618
aS'/Volumes/nyee/datasets/frcnn_data/D0673_04HD/imgs/D0673_04HD_0200.png'
p619
aS'/Volumes/nyee/datasets/frcnn_data/D0232_04HD/imgs/D0232_04HD_0133.png'
p620
aS'/Volumes/nyee/datasets/frcnn_data/D0673_04HD/imgs/D0673_04HD_0172.png'
p621
aS'/Volumes/nyee/datasets/frcnn_data/D008_03HD/imgs/D008_03HD_0121.png'
p622
aS'/Volumes/nyee/datasets/frcnn_data/D0442_06HD/imgs/D0442_06HD_0349.png'
p623
aS'/Volumes/nyee/datasets/frcnn_data/D0673_04HD/imgs/D0673_04HD_0241.png'
p624
aS'/Volumes/nyee/datasets/frcnn_data/D008_03HD/imgs/D008_03HD_0190.png'
p625
aS'/Volumes/nyee/datasets/frcnn_data/D0442_06HD/imgs/D0442_06HD_0315.png'
p626
aS'/Volumes/nyee/datasets/frcnn_data/D0443_05HD/imgs/D0443_05HD_0047.png'
p627
aS'/Volumes/nyee/datasets/frcnn_data/D0232_04HD/imgs/D0232_04HD_0284.png'
p628
aS'/Volumes/nyee/datasets/frcnn_data/D0232_04HD/imgs/D0232_04HD_0377.png'
p629
aS'/Volumes/nyee/datasets/frcnn_data/D0232_04HD/imgs/D0232_04HD_0301.png'
p630
aS'/Volumes/nyee/datasets/frcnn_data/D0443_05HD/imgs/D0443_05HD_0245.png'
p631
aS'/Volumes/nyee/datasets/frcnn_data/D008_03HD/imgs/D008_03HD_0159.png'
p632
aS'/Volumes/nyee/datasets/frcnn_data/D0443_05HD/imgs/D0443_05HD_0122.png'
p633
aS'/Volumes/nyee/datasets/frcnn_data/D0443_05HD/imgs/D0443_05HD_0077.png'
p634
aS'/Volumes/nyee/datasets/frcnn_data/D0443_05HD/imgs/D0443_05HD_0314.png'
p635
aS'/Volumes/nyee/datasets/frcnn_data/D0443_05HD/imgs/D0443_05HD_0005.png'
p636
aS'/Volumes/nyee/datasets/frcnn_data/D0232_04HD/imgs/D0232_04HD_0083.png'
p637
aS'/Volumes/nyee/datasets/frcnn_data/D008_03HD/imgs/D008_03HD_0022.png'
p638
aS'/Volumes/nyee/datasets/frcnn_data/D0443_05HD/imgs/D0443_05HD_0140.png'
p639
aS'/Volumes/nyee/datasets/frcnn_data/D0443_05HD/imgs/D0443_05HD_0026.png'
p640
aS'/Volumes/nyee/datasets/frcnn_data/D0673_04HD/imgs/D0673_04HD_0182.png'
p641
aS'/Volumes/nyee/datasets/frcnn_data/D0673_04HD/imgs/D0673_04HD_0048.png'
p642
aS'/Volumes/nyee/datasets/frcnn_data/D008_03HD/imgs/D008_03HD_0333.png'
p643
aS'/Volumes/nyee/datasets/frcnn_data/D008_03HD/imgs/D008_03HD_0277.png'
p644
aS'/Volumes/nyee/datasets/frcnn_data/D0232_04HD/imgs/D0232_04HD_0038.png'
p645
aS'/Volumes/nyee/datasets/frcnn_data/D0443_05HD/imgs/D0443_05HD_0057.png'
p646
aS'/Volumes/nyee/datasets/frcnn_data/D008_03HD/imgs/D008_03HD_0039.png'
p647
aS'/Volumes/nyee/datasets/frcnn_data/D008_03HD/imgs/D008_03HD_0047.png'
p648
aS'/Volumes/nyee/datasets/frcnn_data/D0442_06HD/imgs/D0442_06HD_0120.png'
p649
aS'/Volumes/nyee/datasets/frcnn_data/D008_03HD/imgs/D008_03HD_0119.png'
p650
aS'/Volumes/nyee/datasets/frcnn_data/D0673_04HD/imgs/D0673_04HD_0028.png'
p651
aS'/Volumes/nyee/datasets/frcnn_data/D0443_05HD/imgs/D0443_05HD_0304.png'
p652
aS'/Volumes/nyee/datasets/frcnn_data/D0232_04HD/imgs/D0232_04HD_0063.png'
p653
aS'/Volumes/nyee/datasets/frcnn_data/D0232_04HD/imgs/D0232_04HD_0015.png'
p654
aS'/Volumes/nyee/datasets/frcnn_data/D0442_06HD/imgs/D0442_06HD_0024.png'
p655
aS'/Volumes/nyee/datasets/frcnn_data/D008_03HD/imgs/D008_03HD_0120.png'
p656
aS'/Volumes/nyee/datasets/frcnn_data/D0442_06HD/imgs/D0442_06HD_0376.png'
p657
aS'/Volumes/nyee/datasets/frcnn_data/D0442_06HD/imgs/D0442_06HD_0038.png'
p658
aS'/Volumes/nyee/datasets/frcnn_data/D0232_04HD/imgs/D0232_04HD_0090.png'
p659
aS'/Volumes/nyee/datasets/frcnn_data/D0442_06HD/imgs/D0442_06HD_0013.png'
p660
aS'/Volumes/nyee/datasets/frcnn_data/D008_03HD/imgs/D008_03HD_0001.png'
p661
aS'/Volumes/nyee/datasets/frcnn_data/D0442_06HD/imgs/D0442_06HD_0180.png'
p662
aS'/Volumes/nyee/datasets/frcnn_data/D0443_05HD/imgs/D0443_05HD_0324.png'
p663
aS'/Volumes/nyee/datasets/frcnn_data/D0232_04HD/imgs/D0232_04HD_0025.png'
p664
aS'/Volumes/nyee/datasets/frcnn_data/D0443_05HD/imgs/D0443_05HD_0003.png'
p665
aS'/Volumes/nyee/datasets/frcnn_data/D0232_04HD/imgs/D0232_04HD_0129.png'
p666
aS'/Volumes/nyee/datasets/frcnn_data/D008_03HD/imgs/D008_03HD_0067.png'
p667
aS'/Volumes/nyee/datasets/frcnn_data/D0443_05HD/imgs/D0443_05HD_0210.png'
p668
aS'/Volumes/nyee/datasets/frcnn_data/D0442_06HD/imgs/D0442_06HD_0030.png'
p669
aS'/Volumes/nyee/datasets/frcnn_data/D0443_05HD/imgs/D0443_05HD_0201.png'
p670
aS'/Volumes/nyee/datasets/frcnn_data/D0673_04HD/imgs/D0673_04HD_0143.png'
p671
aS'/Volumes/nyee/datasets/frcnn_data/D0232_04HD/imgs/D0232_04HD_0274.png'
p672
aS'/Volumes/nyee/datasets/frcnn_data/D0442_06HD/imgs/D0442_06HD_0198.png'
p673
aS'/Volumes/nyee/datasets/frcnn_data/D008_03HD/imgs/D008_03HD_0230.png'
p674
aS'/Volumes/nyee/datasets/frcnn_data/D0232_04HD/imgs/D0232_04HD_0348.png'
p675
aS'/Volumes/nyee/datasets/frcnn_data/D0232_04HD/imgs/D0232_04HD_0208.png'
p676
aS'/Volumes/nyee/datasets/frcnn_data/D0442_06HD/imgs/D0442_06HD_0177.png'
p677
aS'/Volumes/nyee/datasets/frcnn_data/D0232_04HD/imgs/D0232_04HD_0236.png'
p678
aS'/Volumes/nyee/datasets/frcnn_data/D0442_06HD/imgs/D0442_06HD_0311.png'
p679
aS'/Volumes/nyee/datasets/frcnn_data/D0443_05HD/imgs/D0443_05HD_0043.png'
p680
aS'/Volumes/nyee/datasets/frcnn_data/D0443_05HD/imgs/D0443_05HD_0095.png'
p681
aS'/Volumes/nyee/datasets/frcnn_data/D0232_04HD/imgs/D0232_04HD_0309.png'
p682
aS'/Volumes/nyee/datasets/frcnn_data/D0442_06HD/imgs/D0442_06HD_0374.png'
p683
aS'/Volumes/nyee/datasets/frcnn_data/D0443_05HD/imgs/D0443_05HD_0022.png'
p684
aS'/Volumes/nyee/datasets/frcnn_data/D0673_04HD/imgs/D0673_04HD_0109.png'
p685
aS'/Volumes/nyee/datasets/frcnn_data/D0442_06HD/imgs/D0442_06HD_0167.png'
p686
aS'/Volumes/nyee/datasets/frcnn_data/D0232_04HD/imgs/D0232_04HD_0269.png'
p687
aS'/Volumes/nyee/datasets/frcnn_data/D0673_04HD/imgs/D0673_04HD_0251.png'
p688
aS'/Volumes/nyee/datasets/frcnn_data/D0442_06HD/imgs/D0442_06HD_0357.png'
p689
aS'/Volumes/nyee/datasets/frcnn_data/D0442_06HD/imgs/D0442_06HD_0186.png'
p690
aS'/Volumes/nyee/datasets/frcnn_data/D0442_06HD/imgs/D0442_06HD_0018.png'
p691
aS'/Volumes/nyee/datasets/frcnn_data/D0442_06HD/imgs/D0442_06HD_0242.png'
p692
aS'/Volumes/nyee/datasets/frcnn_data/D0673_04HD/imgs/D0673_04HD_0230.png'
p693
aS'/Volumes/nyee/datasets/frcnn_data/D0673_04HD/imgs/D0673_04HD_0052.png'
p694
aS'/Volumes/nyee/datasets/frcnn_data/D008_03HD/imgs/D008_03HD_0117.png'
p695
aS'/Volumes/nyee/datasets/frcnn_data/D0443_05HD/imgs/D0443_05HD_0370.png'
p696
aS'/Volumes/nyee/datasets/frcnn_data/D0442_06HD/imgs/D0442_06HD_0231.png'
p697
aS'/Volumes/nyee/datasets/frcnn_data/D0232_04HD/imgs/D0232_04HD_0253.png'
p698
aS'/Volumes/nyee/datasets/frcnn_data/D0443_05HD/imgs/D0443_05HD_0361.png'
p699
aS'/Volumes/nyee/datasets/frcnn_data/D0673_04HD/imgs/D0673_04HD_0138.png'
p700
aS'/Volumes/nyee/datasets/frcnn_data/D008_03HD/imgs/D008_03HD_0341.png'
p701
aS'/Volumes/nyee/datasets/frcnn_data/D0443_05HD/imgs/D0443_05HD_0150.png'
p702
aS'/Volumes/nyee/datasets/frcnn_data/D0673_04HD/imgs/D0673_04HD_0046.png'
p703
aS'/Volumes/nyee/datasets/frcnn_data/D0673_04HD/imgs/D0673_04HD_0152.png'
p704
aS'/Volumes/nyee/datasets/frcnn_data/D0443_05HD/imgs/D0443_05HD_0070.png'
p705
aS'/Volumes/nyee/datasets/frcnn_data/D0232_04HD/imgs/D0232_04HD_0230.png'
p706
aS'/Volumes/nyee/datasets/frcnn_data/D008_03HD/imgs/D008_03HD_0163.png'
p707
aS'/Volumes/nyee/datasets/frcnn_data/D0232_04HD/imgs/D0232_04HD_0336.png'
p708
aS'/Volumes/nyee/datasets/frcnn_data/D0673_04HD/imgs/D0673_04HD_0208.png'
p709
aS'/Volumes/nyee/datasets/frcnn_data/D0442_06HD/imgs/D0442_06HD_0241.png'
p710
aS'/Volumes/nyee/datasets/frcnn_data/D0673_04HD/imgs/D0673_04HD_0133.png'
p711
aS'/Volumes/nyee/datasets/frcnn_data/D0443_05HD/imgs/D0443_05HD_0366.png'
p712
aS'/Volumes/nyee/datasets/frcnn_data/D0442_06HD/imgs/D0442_06HD_0335.png'
p713
aS'/Volumes/nyee/datasets/frcnn_data/D0232_04HD/imgs/D0232_04HD_0058.png'
p714
aS'/Volumes/nyee/datasets/frcnn_data/D0673_04HD/imgs/D0673_04HD_0162.png'
p715
aS'/Volumes/nyee/datasets/frcnn_data/D0673_04HD/imgs/D0673_04HD_0177.png'
p716
aS'/Volumes/nyee/datasets/frcnn_data/D0443_05HD/imgs/D0443_05HD_0359.png'
p717
aS'/Volumes/nyee/datasets/frcnn_data/D0442_06HD/imgs/D0442_06HD_0086.png'
p718
aS'/Volumes/nyee/datasets/frcnn_data/D0443_05HD/imgs/D0443_05HD_0060.png'
p719
aS'/Volumes/nyee/datasets/frcnn_data/D008_03HD/imgs/D008_03HD_0231.png'
p720
aS'/Volumes/nyee/datasets/frcnn_data/D0673_04HD/imgs/D0673_04HD_0036.png'
p721
aS'/Volumes/nyee/datasets/frcnn_data/D008_03HD/imgs/D008_03HD_0286.png'
p722
aS'/Volumes/nyee/datasets/frcnn_data/D0443_05HD/imgs/D0443_05HD_0357.png'
p723
aS'/Volumes/nyee/datasets/frcnn_data/D0673_04HD/imgs/D0673_04HD_0123.png'
p724
aS'/Volumes/nyee/datasets/frcnn_data/D0232_04HD/imgs/D0232_04HD_0290.png'
p725
aS'/Volumes/nyee/datasets/frcnn_data/D008_03HD/imgs/D008_03HD_0335.png'
p726
aS'/Volumes/nyee/datasets/frcnn_data/D0443_05HD/imgs/D0443_05HD_0146.png'
p727
aS'/Volumes/nyee/datasets/frcnn_data/D0443_05HD/imgs/D0443_05HD_0376.png'
p728
aS'/Volumes/nyee/datasets/frcnn_data/D0442_06HD/imgs/D0442_06HD_0369.png'
p729
aS'/Volumes/nyee/datasets/frcnn_data/D0232_04HD/imgs/D0232_04HD_0100.png'
p730
aS'/Volumes/nyee/datasets/frcnn_data/D0443_05HD/imgs/D0443_05HD_0287.png'
p731
aS'/Volumes/nyee/datasets/frcnn_data/D0443_05HD/imgs/D0443_05HD_0279.png'
p732
aS'/Volumes/nyee/datasets/frcnn_data/D008_03HD/imgs/D008_03HD_0178.png'
p733
aS'/Volumes/nyee/datasets/frcnn_data/D0232_04HD/imgs/D0232_04HD_0334.png'
p734
aS'/Volumes/nyee/datasets/frcnn_data/D0443_05HD/imgs/D0443_05HD_0247.png'
p735
aS'/Volumes/nyee/datasets/frcnn_data/D0673_04HD/imgs/D0673_04HD_0185.png'
p736
aS'/Volumes/nyee/datasets/frcnn_data/D0442_06HD/imgs/D0442_06HD_0104.png'
p737
aS'/Volumes/nyee/datasets/frcnn_data/D0442_06HD/imgs/D0442_06HD_0096.png'
p738
aS'/Volumes/nyee/datasets/frcnn_data/D0232_04HD/imgs/D0232_04HD_0026.png'
p739
aS'/Volumes/nyee/datasets/frcnn_data/D008_03HD/imgs/D008_03HD_0237.png'
p740
aS'/Volumes/nyee/datasets/frcnn_data/D0443_05HD/imgs/D0443_05HD_0066.png'
p741
aS'/Volumes/nyee/datasets/frcnn_data/D008_03HD/imgs/D008_03HD_0267.png'
p742
aS'/Volumes/nyee/datasets/frcnn_data/D0443_05HD/imgs/D0443_05HD_0228.png'
p743
aS'/Volumes/nyee/datasets/frcnn_data/D0232_04HD/imgs/D0232_04HD_0115.png'
p744
aS'/Volumes/nyee/datasets/frcnn_data/D0442_06HD/imgs/D0442_06HD_0149.png'
p745
aS'/Volumes/nyee/datasets/frcnn_data/D0232_04HD/imgs/D0232_04HD_0108.png'
p746
aS'/Volumes/nyee/datasets/frcnn_data/D0673_04HD/imgs/D0673_04HD_0219.png'
p747
aS'/Volumes/nyee/datasets/frcnn_data/D0673_04HD/imgs/D0673_04HD_0186.png'
p748
aS'/Volumes/nyee/datasets/frcnn_data/D0232_04HD/imgs/D0232_04HD_0123.png'
p749
aS'/Volumes/nyee/datasets/frcnn_data/D0232_04HD/imgs/D0232_04HD_0353.png'
p750
aS'/Volumes/nyee/datasets/frcnn_data/D008_03HD/imgs/D008_03HD_0149.png'
p751
aS'/Volumes/nyee/datasets/frcnn_data/D008_03HD/imgs/D008_03HD_0300.png'
p752
aS'/Volumes/nyee/datasets/frcnn_data/D008_03HD/imgs/D008_03HD_0315.png'
p753
aS'/Volumes/nyee/datasets/frcnn_data/D0442_06HD/imgs/D0442_06HD_0169.png'
p754
aS'/Volumes/nyee/datasets/frcnn_data/D0443_05HD/imgs/D0443_05HD_0162.png'
p755
aS'/Volumes/nyee/datasets/frcnn_data/D0442_06HD/imgs/D0442_06HD_0192.png'
p756
aS'/Volumes/nyee/datasets/frcnn_data/D008_03HD/imgs/D008_03HD_0061.png'
p757
aS'/Volumes/nyee/datasets/frcnn_data/D0673_04HD/imgs/D0673_04HD_0150.png'
p758
aS'/Volumes/nyee/datasets/frcnn_data/D0232_04HD/imgs/D0232_04HD_0332.png'
p759
aS'/Volumes/nyee/datasets/frcnn_data/D0443_05HD/imgs/D0443_05HD_0180.png'
p760
aS'/Volumes/nyee/datasets/frcnn_data/D0442_06HD/imgs/D0442_06HD_0044.png'
p761
aS'/Volumes/nyee/datasets/frcnn_data/D0442_06HD/imgs/D0442_06HD_0216.png'
p762
aS'/Volumes/nyee/datasets/frcnn_data/D0232_04HD/imgs/D0232_04HD_0288.png'
p763
aS'/Volumes/nyee/datasets/frcnn_data/D0232_04HD/imgs/D0232_04HD_0314.png'
p764
aS'/Volumes/nyee/datasets/frcnn_data/D0232_04HD/imgs/D0232_04HD_0034.png'
p765
aS'/Volumes/nyee/datasets/frcnn_data/D0442_06HD/imgs/D0442_06HD_0245.png'
p766
aS'/Volumes/nyee/datasets/frcnn_data/D0673_04HD/imgs/D0673_04HD_0018.png'
p767
aS'/Volumes/nyee/datasets/frcnn_data/D008_03HD/imgs/D008_03HD_0058.png'
p768
aS'/Volumes/nyee/datasets/frcnn_data/D0673_04HD/imgs/D0673_04HD_0137.png'
p769
aS'/Volumes/nyee/datasets/frcnn_data/D0442_06HD/imgs/D0442_06HD_0069.png'
p770
aS'/Volumes/nyee/datasets/frcnn_data/D0442_06HD/imgs/D0442_06HD_0354.png'
p771
aS'/Volumes/nyee/datasets/frcnn_data/D0442_06HD/imgs/D0442_06HD_0195.png'
p772
aS'/Volumes/nyee/datasets/frcnn_data/D0442_06HD/imgs/D0442_06HD_0275.png'
p773
aS'/Volumes/nyee/datasets/frcnn_data/D0443_05HD/imgs/D0443_05HD_0078.png'
p774
aS'/Volumes/nyee/datasets/frcnn_data/D0443_05HD/imgs/D0443_05HD_0064.png'
p775
aS'/Volumes/nyee/datasets/frcnn_data/D0442_06HD/imgs/D0442_06HD_0034.png'
p776
aS'/Volumes/nyee/datasets/frcnn_data/D008_03HD/imgs/D008_03HD_0105.png'
p777
aS'/Volumes/nyee/datasets/frcnn_data/D0442_06HD/imgs/D0442_06HD_0188.png'
p778
aS'/Volumes/nyee/datasets/frcnn_data/D0232_04HD/imgs/D0232_04HD_0360.png'
p779
aS'/Volumes/nyee/datasets/frcnn_data/D0443_05HD/imgs/D0443_05HD_0195.png'
p780
aS'/Volumes/nyee/datasets/frcnn_data/D0232_04HD/imgs/D0232_04HD_0172.png'
p781
aS'/Volumes/nyee/datasets/frcnn_data/D0232_04HD/imgs/D0232_04HD_0242.png'
p782
aS'/Volumes/nyee/datasets/frcnn_data/D0443_05HD/imgs/D0443_05HD_0188.png'
p783
aS'/Volumes/nyee/datasets/frcnn_data/D008_03HD/imgs/D008_03HD_0348.png'
p784
aS'/Volumes/nyee/datasets/frcnn_data/D0443_05HD/imgs/D0443_05HD_0159.png'
p785
aS'/Volumes/nyee/datasets/frcnn_data/D0232_04HD/imgs/D0232_04HD_0227.png'
p786
aS'/Volumes/nyee/datasets/frcnn_data/D0232_04HD/imgs/D0232_04HD_0259.png'
p787
aS'/Volumes/nyee/datasets/frcnn_data/D0232_04HD/imgs/D0232_04HD_0322.png'
p788
aS'/Volumes/nyee/datasets/frcnn_data/D0442_06HD/imgs/D0442_06HD_0056.png'
p789
aS'/Volumes/nyee/datasets/frcnn_data/D0673_04HD/imgs/D0673_04HD_0066.png'
p790
aS'/Volumes/nyee/datasets/frcnn_data/D0442_06HD/imgs/D0442_06HD_0046.png'
p791
aS'/Volumes/nyee/datasets/frcnn_data/D0232_04HD/imgs/D0232_04HD_0370.png'
p792
aS'/Volumes/nyee/datasets/frcnn_data/D0442_06HD/imgs/D0442_06HD_0342.png'
p793
aS'/Volumes/nyee/datasets/frcnn_data/D0443_05HD/imgs/D0443_05HD_0039.png'
p794
aS'/Volumes/nyee/datasets/frcnn_data/D0442_06HD/imgs/D0442_06HD_0092.png'
p795
aS'/Volumes/nyee/datasets/frcnn_data/D0442_06HD/imgs/D0442_06HD_0082.png'
p796
aS'/Volumes/nyee/datasets/frcnn_data/D0232_04HD/imgs/D0232_04HD_0162.png'
p797
aS'/Volumes/nyee/datasets/frcnn_data/D0232_04HD/imgs/D0232_04HD_0182.png'
p798
aS'/Volumes/nyee/datasets/frcnn_data/D0673_04HD/imgs/D0673_04HD_0055.png'
p799
aS'/Volumes/nyee/datasets/frcnn_data/D0673_04HD/imgs/D0673_04HD_0013.png'
p800
aS'/Volumes/nyee/datasets/frcnn_data/D0443_05HD/imgs/D0443_05HD_0274.png'
p801
aS'/Volumes/nyee/datasets/frcnn_data/D0673_04HD/imgs/D0673_04HD_0056.png'
p802
aS'/Volumes/nyee/datasets/frcnn_data/D008_03HD/imgs/D008_03HD_0107.png'
p803
aS'/Volumes/nyee/datasets/frcnn_data/D0232_04HD/imgs/D0232_04HD_0150.png'
p804
aS'/Volumes/nyee/datasets/frcnn_data/D0673_04HD/imgs/D0673_04HD_0043.png'
p805
aS'/Volumes/nyee/datasets/frcnn_data/D0232_04HD/imgs/D0232_04HD_0261.png'
p806
aS'/Volumes/nyee/datasets/frcnn_data/D0232_04HD/imgs/D0232_04HD_0198.png'
p807
aS'/Volumes/nyee/datasets/frcnn_data/D0673_04HD/imgs/D0673_04HD_0114.png'
p808
aS'/Volumes/nyee/datasets/frcnn_data/D0232_04HD/imgs/D0232_04HD_0295.png'
p809
aS'/Volumes/nyee/datasets/frcnn_data/D0232_04HD/imgs/D0232_04HD_0207.png'
p810
aS'/Volumes/nyee/datasets/frcnn_data/D008_03HD/imgs/D008_03HD_0094.png'
p811
aS'/Volumes/nyee/datasets/frcnn_data/D0673_04HD/imgs/D0673_04HD_0225.png'
p812
aS'/Volumes/nyee/datasets/frcnn_data/D0673_04HD/imgs/D0673_04HD_0141.png'
p813
aS'/Volumes/nyee/datasets/frcnn_data/D008_03HD/imgs/D008_03HD_0080.png'
p814
aS'/Volumes/nyee/datasets/frcnn_data/D0443_05HD/imgs/D0443_05HD_0339.png'
p815
aS'/Volumes/nyee/datasets/frcnn_data/D0673_04HD/imgs/D0673_04HD_0217.png'
p816
aS'/Volumes/nyee/datasets/frcnn_data/D0673_04HD/imgs/D0673_04HD_0070.png'
p817
aS'/Volumes/nyee/datasets/frcnn_data/D0443_05HD/imgs/D0443_05HD_0123.png'
p818
aS'/Volumes/nyee/datasets/frcnn_data/D0673_04HD/imgs/D0673_04HD_0064.png'
p819
aS'/Volumes/nyee/datasets/frcnn_data/D008_03HD/imgs/D008_03HD_0162.png'
p820
aS'/Volumes/nyee/datasets/frcnn_data/D0673_04HD/imgs/D0673_04HD_0031.png'
p821
aS'/Volumes/nyee/datasets/frcnn_data/D0442_06HD/imgs/D0442_06HD_0254.png'
p822
aS'/Volumes/nyee/datasets/frcnn_data/D0232_04HD/imgs/D0232_04HD_0039.png'
p823
aS'/Volumes/nyee/datasets/frcnn_data/D0443_05HD/imgs/D0443_05HD_0371.png'
p824
aS'/Volumes/nyee/datasets/frcnn_data/D0443_05HD/imgs/D0443_05HD_0102.png'
p825
aS'/Volumes/nyee/datasets/frcnn_data/D0673_04HD/imgs/D0673_04HD_0112.png'
p826
aS'/Volumes/nyee/datasets/frcnn_data/D008_03HD/imgs/D008_03HD_0118.png'
p827
aS'/Volumes/nyee/datasets/frcnn_data/D0673_04HD/imgs/D0673_04HD_0011.png'
p828
aS'/Volumes/nyee/datasets/frcnn_data/D0443_05HD/imgs/D0443_05HD_0300.png'
p829
aS'/Volumes/nyee/datasets/frcnn_data/D0443_05HD/imgs/D0443_05HD_0118.png'
p830
aS'/Volumes/nyee/datasets/frcnn_data/D008_03HD/imgs/D008_03HD_0309.png'
p831
aS'/Volumes/nyee/datasets/frcnn_data/D0232_04HD/imgs/D0232_04HD_0297.png'
p832
aS'/Volumes/nyee/datasets/frcnn_data/D008_03HD/imgs/D008_03HD_0293.png'
p833
aS'/Volumes/nyee/datasets/frcnn_data/D0232_04HD/imgs/D0232_04HD_0324.png'
p834
aS'/Volumes/nyee/datasets/frcnn_data/D0673_04HD/imgs/D0673_04HD_0032.png'
p835
aS'/Volumes/nyee/datasets/frcnn_data/D008_03HD/imgs/D008_03HD_0354.png'
p836
aS'/Volumes/nyee/datasets/frcnn_data/D0442_06HD/imgs/D0442_06HD_0233.png'
p837
aS'/Volumes/nyee/datasets/frcnn_data/D0443_05HD/imgs/D0443_05HD_0134.png'
p838
aS'/Volumes/nyee/datasets/frcnn_data/D0442_06HD/imgs/D0442_06HD_0263.png'
p839
aS'/Volumes/nyee/datasets/frcnn_data/D0232_04HD/imgs/D0232_04HD_0374.png'
p840
aS'/Volumes/nyee/datasets/frcnn_data/D0442_06HD/imgs/D0442_06HD_0292.png'
p841
aS'/Volumes/nyee/datasets/frcnn_data/D0443_05HD/imgs/D0443_05HD_0121.png'
p842
aS'/Volumes/nyee/datasets/frcnn_data/D008_03HD/imgs/D008_03HD_0164.png'
p843
aS'/Volumes/nyee/datasets/frcnn_data/D0232_04HD/imgs/D0232_04HD_0169.png'
p844
aS'/Volumes/nyee/datasets/frcnn_data/D0443_05HD/imgs/D0443_05HD_0031.png'
p845
aS'/Volumes/nyee/datasets/frcnn_data/D008_03HD/imgs/D008_03HD_0202.png'
p846
aS'/Volumes/nyee/datasets/frcnn_data/D0443_05HD/imgs/D0443_05HD_0238.png'
p847
aS'/Volumes/nyee/datasets/frcnn_data/D0673_04HD/imgs/D0673_04HD_0198.png'
p848
aS'/Volumes/nyee/datasets/frcnn_data/D0232_04HD/imgs/D0232_04HD_0166.png'
p849
aS'/Volumes/nyee/datasets/frcnn_data/D0232_04HD/imgs/D0232_04HD_0186.png'
p850
aS'/Volumes/nyee/datasets/frcnn_data/D008_03HD/imgs/D008_03HD_0048.png'
p851
aS'/Volumes/nyee/datasets/frcnn_data/D0442_06HD/imgs/D0442_06HD_0285.png'
p852
aS'/Volumes/nyee/datasets/frcnn_data/D0442_06HD/imgs/D0442_06HD_0325.png'
p853
aS'/Volumes/nyee/datasets/frcnn_data/D0673_04HD/imgs/D0673_04HD_0104.png'
p854
aS'/Volumes/nyee/datasets/frcnn_data/D0442_06HD/imgs/D0442_06HD_0260.png'
p855
aS'/Volumes/nyee/datasets/frcnn_data/D008_03HD/imgs/D008_03HD_0263.png'
p856
aS'/Volumes/nyee/datasets/frcnn_data/D0442_06HD/imgs/D0442_06HD_0258.png'
p857
aS'/Volumes/nyee/datasets/frcnn_data/D0442_06HD/imgs/D0442_06HD_0011.png'
p858
aS'/Volumes/nyee/datasets/frcnn_data/D0442_06HD/imgs/D0442_06HD_0249.png'
p859
aS'/Volumes/nyee/datasets/frcnn_data/D0442_06HD/imgs/D0442_06HD_0107.png'
p860
aS'/Volumes/nyee/datasets/frcnn_data/D0443_05HD/imgs/D0443_05HD_0337.png'
p861
aS'/Volumes/nyee/datasets/frcnn_data/D008_03HD/imgs/D008_03HD_0031.png'
p862
aS'/Volumes/nyee/datasets/frcnn_data/D0232_04HD/imgs/D0232_04HD_0357.png'
p863
aS'/Volumes/nyee/datasets/frcnn_data/D0442_06HD/imgs/D0442_06HD_0203.png'
p864
aS'/Volumes/nyee/datasets/frcnn_data/D0442_06HD/imgs/D0442_06HD_0361.png'
p865
aS'/Volumes/nyee/datasets/frcnn_data/D008_03HD/imgs/D008_03HD_0002.png'
p866
aS'/Volumes/nyee/datasets/frcnn_data/D0442_06HD/imgs/D0442_06HD_0212.png'
p867
aS'/Volumes/nyee/datasets/frcnn_data/D0232_04HD/imgs/D0232_04HD_0315.png'
p868
aS'/Volumes/nyee/datasets/frcnn_data/D0232_04HD/imgs/D0232_04HD_0097.png'
p869
aS'/Volumes/nyee/datasets/frcnn_data/D0442_06HD/imgs/D0442_06HD_0058.png'
p870
aS'/Volumes/nyee/datasets/frcnn_data/D0443_05HD/imgs/D0443_05HD_0033.png'
p871
aS'/Volumes/nyee/datasets/frcnn_data/D008_03HD/imgs/D008_03HD_0200.png'
p872
aS'/Volumes/nyee/datasets/frcnn_data/D0232_04HD/imgs/D0232_04HD_0052.png'
p873
aS'/Volumes/nyee/datasets/frcnn_data/D0443_05HD/imgs/D0443_05HD_0206.png'
p874
aS'/Volumes/nyee/datasets/frcnn_data/D0443_05HD/imgs/D0443_05HD_0106.png'
p875
aS'/Volumes/nyee/datasets/frcnn_data/D0232_04HD/imgs/D0232_04HD_0347.png'
p876
aS'/Volumes/nyee/datasets/frcnn_data/D0442_06HD/imgs/D0442_06HD_0179.png'
p877
aS'/Volumes/nyee/datasets/frcnn_data/D0232_04HD/imgs/D0232_04HD_0146.png'
p878
aS'/Volumes/nyee/datasets/frcnn_data/D0442_06HD/imgs/D0442_06HD_0336.png'
p879
aS'/Volumes/nyee/datasets/frcnn_data/D008_03HD/imgs/D008_03HD_0350.png'
p880
aS'/Volumes/nyee/datasets/frcnn_data/D0442_06HD/imgs/D0442_06HD_0224.png'
p881
aS'/Volumes/nyee/datasets/frcnn_data/D0442_06HD/imgs/D0442_06HD_0164.png'
p882
aS'/Volumes/nyee/datasets/frcnn_data/D0443_05HD/imgs/D0443_05HD_0299.png'
p883
aS'/Volumes/nyee/datasets/frcnn_data/D0442_06HD/imgs/D0442_06HD_0238.png'
p884
aS'/Volumes/nyee/datasets/frcnn_data/D0443_05HD/imgs/D0443_05HD_0050.png'
p885
aS'/Volumes/nyee/datasets/frcnn_data/D0442_06HD/imgs/D0442_06HD_0312.png'
p886
aS'/Volumes/nyee/datasets/frcnn_data/D0442_06HD/imgs/D0442_06HD_0088.png'
p887
aS'/Volumes/nyee/datasets/frcnn_data/D0443_05HD/imgs/D0443_05HD_0270.png'
p888
aS'/Volumes/nyee/datasets/frcnn_data/D0442_06HD/imgs/D0442_06HD_0363.png'
p889
aS'/Volumes/nyee/datasets/frcnn_data/D0443_05HD/imgs/D0443_05HD_0035.png'
p890
aS'/Volumes/nyee/datasets/frcnn_data/D0232_04HD/imgs/D0232_04HD_0201.png'
p891
aS'/Volumes/nyee/datasets/frcnn_data/D0443_05HD/imgs/D0443_05HD_0345.png'
p892
aS'/Volumes/nyee/datasets/frcnn_data/D0443_05HD/imgs/D0443_05HD_0358.png'
p893
aS'/Volumes/nyee/datasets/frcnn_data/D0442_06HD/imgs/D0442_06HD_0358.png'
p894
aS'/Volumes/nyee/datasets/frcnn_data/D0442_06HD/imgs/D0442_06HD_0279.png'
p895
aS'/Volumes/nyee/datasets/frcnn_data/D0443_05HD/imgs/D0443_05HD_0017.png'
p896
aS'/Volumes/nyee/datasets/frcnn_data/D0232_04HD/imgs/D0232_04HD_0313.png'
p897
aS'/Volumes/nyee/datasets/frcnn_data/D008_03HD/imgs/D008_03HD_0220.png'
p898
aS'/Volumes/nyee/datasets/frcnn_data/D0443_05HD/imgs/D0443_05HD_0225.png'
p899
aS'/Volumes/nyee/datasets/frcnn_data/D0673_04HD/imgs/D0673_04HD_0239.png'
p900
aS'/Volumes/nyee/datasets/frcnn_data/D008_03HD/imgs/D008_03HD_0281.png'
p901
aS'/Volumes/nyee/datasets/frcnn_data/D0442_06HD/imgs/D0442_06HD_0006.png'
p902
aS'/Volumes/nyee/datasets/frcnn_data/D0442_06HD/imgs/D0442_06HD_0281.png'
p903
aS'/Volumes/nyee/datasets/frcnn_data/D008_03HD/imgs/D008_03HD_0029.png'
p904
aS'/Volumes/nyee/datasets/frcnn_data/D0673_04HD/imgs/D0673_04HD_0118.png'
p905
aS'/Volumes/nyee/datasets/frcnn_data/D008_03HD/imgs/D008_03HD_0334.png'
p906
aS'/Volumes/nyee/datasets/frcnn_data/D008_03HD/imgs/D008_03HD_0045.png'
p907
aS'/Volumes/nyee/datasets/frcnn_data/D0443_05HD/imgs/D0443_05HD_0147.png'
p908
aS'/Volumes/nyee/datasets/frcnn_data/D0673_04HD/imgs/D0673_04HD_0221.png'
p909
aS'/Volumes/nyee/datasets/frcnn_data/D0232_04HD/imgs/D0232_04HD_0056.png'
p910
aS'/Volumes/nyee/datasets/frcnn_data/D0673_04HD/imgs/D0673_04HD_0212.png'
p911
aS'/Volumes/nyee/datasets/frcnn_data/D0443_05HD/imgs/D0443_05HD_0045.png'
p912
aS'/Volumes/nyee/datasets/frcnn_data/D0442_06HD/imgs/D0442_06HD_0143.png'
p913
aS'/Volumes/nyee/datasets/frcnn_data/D0443_05HD/imgs/D0443_05HD_0165.png'
p914
aS'/Volumes/nyee/datasets/frcnn_data/D008_03HD/imgs/D008_03HD_0312.png'
p915
aS'/Volumes/nyee/datasets/frcnn_data/D0443_05HD/imgs/D0443_05HD_0318.png'
p916
aS'/Volumes/nyee/datasets/frcnn_data/D0443_05HD/imgs/D0443_05HD_0369.png'
p917
aS'/Volumes/nyee/datasets/frcnn_data/D008_03HD/imgs/D008_03HD_0173.png'
p918
aS'/Volumes/nyee/datasets/frcnn_data/D0673_04HD/imgs/D0673_04HD_0203.png'
p919
aS'/Volumes/nyee/datasets/frcnn_data/D0232_04HD/imgs/D0232_04HD_0007.png'
p920
aS'/Volumes/nyee/datasets/frcnn_data/D0443_05HD/imgs/D0443_05HD_0302.png'
p921
aS'/Volumes/nyee/datasets/frcnn_data/D0443_05HD/imgs/D0443_05HD_0326.png'
p922
aS'/Volumes/nyee/datasets/frcnn_data/D008_03HD/imgs/D008_03HD_0108.png'
p923
aS'/Volumes/nyee/datasets/frcnn_data/D0673_04HD/imgs/D0673_04HD_0079.png'
p924
aS'/Volumes/nyee/datasets/frcnn_data/D008_03HD/imgs/D008_03HD_0299.png'
p925
aS'/Volumes/nyee/datasets/frcnn_data/D0673_04HD/imgs/D0673_04HD_0024.png'
p926
aS'/Volumes/nyee/datasets/frcnn_data/D0442_06HD/imgs/D0442_06HD_0175.png'
p927
aS'/Volumes/nyee/datasets/frcnn_data/D0232_04HD/imgs/D0232_04HD_0024.png'
p928
aS'/Volumes/nyee/datasets/frcnn_data/D0232_04HD/imgs/D0232_04HD_0197.png'
p929
aS'/Volumes/nyee/datasets/frcnn_data/D0443_05HD/imgs/D0443_05HD_0163.png'
p930
aS'/Volumes/nyee/datasets/frcnn_data/D008_03HD/imgs/D008_03HD_0060.png'
p931
aS'/Volumes/nyee/datasets/frcnn_data/D0442_06HD/imgs/D0442_06HD_0373.png'
p932
aS'/Volumes/nyee/datasets/frcnn_data/D008_03HD/imgs/D008_03HD_0269.png'
p933
aS'/Volumes/nyee/datasets/frcnn_data/D0232_04HD/imgs/D0232_04HD_0071.png'
p934
aS'/Volumes/nyee/datasets/frcnn_data/D008_03HD/imgs/D008_03HD_0046.png'
p935
aS'/Volumes/nyee/datasets/frcnn_data/D008_03HD/imgs/D008_03HD_0153.png'
p936
aS'/Volumes/nyee/datasets/frcnn_data/D0232_04HD/imgs/D0232_04HD_0042.png'
p937
aS'/Volumes/nyee/datasets/frcnn_data/D0443_05HD/imgs/D0443_05HD_0323.png'
p938
aS'/Volumes/nyee/datasets/frcnn_data/D008_03HD/imgs/D008_03HD_0102.png'
p939
aS'/Volumes/nyee/datasets/frcnn_data/D0442_06HD/imgs/D0442_06HD_0189.png'
p940
aS'/Volumes/nyee/datasets/frcnn_data/D0443_05HD/imgs/D0443_05HD_0087.png'
p941
aS'/Volumes/nyee/datasets/frcnn_data/D008_03HD/imgs/D008_03HD_0229.png'
p942
aS'/Volumes/nyee/datasets/frcnn_data/D0232_04HD/imgs/D0232_04HD_0153.png'
p943
aS'/Volumes/nyee/datasets/frcnn_data/D008_03HD/imgs/D008_03HD_0261.png'
p944
aS'/Volumes/nyee/datasets/frcnn_data/D008_03HD/imgs/D008_03HD_0316.png'
p945
aS'/Volumes/nyee/datasets/frcnn_data/D008_03HD/imgs/D008_03HD_0306.png'
p946
aS'/Volumes/nyee/datasets/frcnn_data/D008_03HD/imgs/D008_03HD_0040.png'
p947
aS'/Volumes/nyee/datasets/frcnn_data/D0443_05HD/imgs/D0443_05HD_0117.png'
p948
aS'/Volumes/nyee/datasets/frcnn_data/D0443_05HD/imgs/D0443_05HD_0161.png'
p949
aS'/Volumes/nyee/datasets/frcnn_data/D0442_06HD/imgs/D0442_06HD_0116.png'
p950
aS'/Volumes/nyee/datasets/frcnn_data/D008_03HD/imgs/D008_03HD_0288.png'
p951
aS'/Volumes/nyee/datasets/frcnn_data/D008_03HD/imgs/D008_03HD_0242.png'
p952
aS'/Volumes/nyee/datasets/frcnn_data/D0232_04HD/imgs/D0232_04HD_0073.png'
p953
aS'/Volumes/nyee/datasets/frcnn_data/D0673_04HD/imgs/D0673_04HD_0240.png'
p954
aS'/Volumes/nyee/datasets/frcnn_data/D0442_06HD/imgs/D0442_06HD_0300.png'
p955
aS'/Volumes/nyee/datasets/frcnn_data/D0232_04HD/imgs/D0232_04HD_0307.png'
p956
aS'/Volumes/nyee/datasets/frcnn_data/D0232_04HD/imgs/D0232_04HD_0349.png'
p957
aS'/Volumes/nyee/datasets/frcnn_data/D0442_06HD/imgs/D0442_06HD_0218.png'
p958
aS'/Volumes/nyee/datasets/frcnn_data/D0673_04HD/imgs/D0673_04HD_0007.png'
p959
aS'/Volumes/nyee/datasets/frcnn_data/D0442_06HD/imgs/D0442_06HD_0204.png'
p960
aS'/Volumes/nyee/datasets/frcnn_data/D0443_05HD/imgs/D0443_05HD_0235.png'
p961
aS'/Volumes/nyee/datasets/frcnn_data/D008_03HD/imgs/D008_03HD_0235.png'
p962
aS'/Volumes/nyee/datasets/frcnn_data/D008_03HD/imgs/D008_03HD_0253.png'
p963
aS'/Volumes/nyee/datasets/frcnn_data/D0673_04HD/imgs/D0673_04HD_0124.png'
p964
aS'/Volumes/nyee/datasets/frcnn_data/D0232_04HD/imgs/D0232_04HD_0376.png'
p965
aS'/Volumes/nyee/datasets/frcnn_data/D0673_04HD/imgs/D0673_04HD_0193.png'
p966
aS'/Volumes/nyee/datasets/frcnn_data/D0443_05HD/imgs/D0443_05HD_0244.png'
p967
aS'/Volumes/nyee/datasets/frcnn_data/D0232_04HD/imgs/D0232_04HD_0260.png'
p968
aS'/Volumes/nyee/datasets/frcnn_data/D0232_04HD/imgs/D0232_04HD_0096.png'
p969
aS'/Volumes/nyee/datasets/frcnn_data/D0673_04HD/imgs/D0673_04HD_0146.png'
p970
aS'/Volumes/nyee/datasets/frcnn_data/D008_03HD/imgs/D008_03HD_0208.png'
p971
aS'/Volumes/nyee/datasets/frcnn_data/D0442_06HD/imgs/D0442_06HD_0171.png'
p972
aS'/Volumes/nyee/datasets/frcnn_data/D0442_06HD/imgs/D0442_06HD_0147.png'
p973
aS'/Volumes/nyee/datasets/frcnn_data/D0232_04HD/imgs/D0232_04HD_0228.png'
p974
aS'/Volumes/nyee/datasets/frcnn_data/D008_03HD/imgs/D008_03HD_0042.png'
p975
aS'/Volumes/nyee/datasets/frcnn_data/D0232_04HD/imgs/D0232_04HD_0371.png'
p976
aS'/Volumes/nyee/datasets/frcnn_data/D0673_04HD/imgs/D0673_04HD_0201.png'
p977
aS'/Volumes/nyee/datasets/frcnn_data/D0442_06HD/imgs/D0442_06HD_0114.png'
p978
aS'/Volumes/nyee/datasets/frcnn_data/D0443_05HD/imgs/D0443_05HD_0338.png'
p979
aS'/Volumes/nyee/datasets/frcnn_data/D008_03HD/imgs/D008_03HD_0240.png'
p980
aS'/Volumes/nyee/datasets/frcnn_data/D0232_04HD/imgs/D0232_04HD_0120.png'
p981
aS'/Volumes/nyee/datasets/frcnn_data/D0232_04HD/imgs/D0232_04HD_0364.png'
p982
aS'/Volumes/nyee/datasets/frcnn_data/D0443_05HD/imgs/D0443_05HD_0258.png'
p983
aS'/Volumes/nyee/datasets/frcnn_data/D0442_06HD/imgs/D0442_06HD_0137.png'
p984
aS'/Volumes/nyee/datasets/frcnn_data/D008_03HD/imgs/D008_03HD_0136.png'
p985
aS'/Volumes/nyee/datasets/frcnn_data/D0232_04HD/imgs/D0232_04HD_0062.png'
p986
aS'/Volumes/nyee/datasets/frcnn_data/D0442_06HD/imgs/D0442_06HD_0091.png'
p987
aS'/Volumes/nyee/datasets/frcnn_data/D0232_04HD/imgs/D0232_04HD_0251.png'
p988
aS'/Volumes/nyee/datasets/frcnn_data/D0443_05HD/imgs/D0443_05HD_0054.png'
p989
aS'/Volumes/nyee/datasets/frcnn_data/D0443_05HD/imgs/D0443_05HD_0128.png'
p990
aS'/Volumes/nyee/datasets/frcnn_data/D0442_06HD/imgs/D0442_06HD_0326.png'
p991
aS'/Volumes/nyee/datasets/frcnn_data/D0232_04HD/imgs/D0232_04HD_0131.png'
p992
aS'/Volumes/nyee/datasets/frcnn_data/D008_03HD/imgs/D008_03HD_0279.png'
p993
aS'/Volumes/nyee/datasets/frcnn_data/D0443_05HD/imgs/D0443_05HD_0028.png'
p994
aS'/Volumes/nyee/datasets/frcnn_data/D0232_04HD/imgs/D0232_04HD_0272.png'
p995
aS'/Volumes/nyee/datasets/frcnn_data/D0232_04HD/imgs/D0232_04HD_0262.png'
p996
aS'/Volumes/nyee/datasets/frcnn_data/D0443_05HD/imgs/D0443_05HD_0016.png'
p997
aS'/Volumes/nyee/datasets/frcnn_data/D0673_04HD/imgs/D0673_04HD_0103.png'
p998
aS'/Volumes/nyee/datasets/frcnn_data/D008_03HD/imgs/D008_03HD_0221.png'
p999
aS'/Volumes/nyee/datasets/frcnn_data/D0673_04HD/imgs/D0673_04HD_0033.png'
p1000
aS'/Volumes/nyee/datasets/frcnn_data/D0673_04HD/imgs/D0673_04HD_0174.png'
p1001
aS'/Volumes/nyee/datasets/frcnn_data/D008_03HD/imgs/D008_03HD_0093.png'
p1002
aS'/Volumes/nyee/datasets/frcnn_data/D0443_05HD/imgs/D0443_05HD_0169.png'
p1003
aS'/Volumes/nyee/datasets/frcnn_data/D0442_06HD/imgs/D0442_06HD_0155.png'
p1004
aS'/Volumes/nyee/datasets/frcnn_data/D0443_05HD/imgs/D0443_05HD_0049.png'
p1005
aS'/Volumes/nyee/datasets/frcnn_data/D008_03HD/imgs/D008_03HD_0272.png'
p1006
aS'/Volumes/nyee/datasets/frcnn_data/D0673_04HD/imgs/D0673_04HD_0004.png'
p1007
aS'/Volumes/nyee/datasets/frcnn_data/D0442_06HD/imgs/D0442_06HD_0310.png'
p1008
aS'/Volumes/nyee/datasets/frcnn_data/D0443_05HD/imgs/D0443_05HD_0073.png'
p1009
aS'/Volumes/nyee/datasets/frcnn_data/D0232_04HD/imgs/D0232_04HD_0030.png'
p1010
aS'/Volumes/nyee/datasets/frcnn_data/D0443_05HD/imgs/D0443_05HD_0276.png'
p1011
aS'/Volumes/nyee/datasets/frcnn_data/D008_03HD/imgs/D008_03HD_0155.png'
p1012
aS'/Volumes/nyee/datasets/frcnn_data/D0443_05HD/imgs/D0443_05HD_0148.png'
p1013
aS'/Volumes/nyee/datasets/frcnn_data/D0442_06HD/imgs/D0442_06HD_0109.png'
p1014
aS'/Volumes/nyee/datasets/frcnn_data/D0443_05HD/imgs/D0443_05HD_0214.png'
p1015
aS'/Volumes/nyee/datasets/frcnn_data/D0232_04HD/imgs/D0232_04HD_0003.png'
p1016
aS'/Volumes/nyee/datasets/frcnn_data/D008_03HD/imgs/D008_03HD_0227.png'
p1017
aS'/Volumes/nyee/datasets/frcnn_data/D0443_05HD/imgs/D0443_05HD_0010.png'
p1018
aS'/Volumes/nyee/datasets/frcnn_data/D0443_05HD/imgs/D0443_05HD_0156.png'
p1019
aS'/Volumes/nyee/datasets/frcnn_data/D008_03HD/imgs/D008_03HD_0070.png'
p1020
aS'/Volumes/nyee/datasets/frcnn_data/D008_03HD/imgs/D008_03HD_0347.png'
p1021
aS'/Volumes/nyee/datasets/frcnn_data/D0442_06HD/imgs/D0442_06HD_0005.png'
p1022
aS'/Volumes/nyee/datasets/frcnn_data/D0232_04HD/imgs/D0232_04HD_0047.png'
p1023
aS'/Volumes/nyee/datasets/frcnn_data/D0673_04HD/imgs/D0673_04HD_0235.png'
p1024
aS'/Volumes/nyee/datasets/frcnn_data/D0232_04HD/imgs/D0232_04HD_0249.png'
p1025
aS'/Volumes/nyee/datasets/frcnn_data/D0673_04HD/imgs/D0673_04HD_0243.png'
p1026
aS'/Volumes/nyee/datasets/frcnn_data/D0442_06HD/imgs/D0442_06HD_0295.png'
p1027
aS'/Volumes/nyee/datasets/frcnn_data/D008_03HD/imgs/D008_03HD_0083.png'
p1028
aS'/Volumes/nyee/datasets/frcnn_data/D0232_04HD/imgs/D0232_04HD_0013.png'
p1029
aS'/Volumes/nyee/datasets/frcnn_data/D0232_04HD/imgs/D0232_04HD_0069.png'
p1030
aS'/Volumes/nyee/datasets/frcnn_data/D0442_06HD/imgs/D0442_06HD_0240.png'
p1031
aS'/Volumes/nyee/datasets/frcnn_data/D008_03HD/imgs/D008_03HD_0041.png'
p1032
aS'/Volumes/nyee/datasets/frcnn_data/D0442_06HD/imgs/D0442_06HD_0302.png'
p1033
aS'/Volumes/nyee/datasets/frcnn_data/D0673_04HD/imgs/D0673_04HD_0098.png'
p1034
aS'/Volumes/nyee/datasets/frcnn_data/D0232_04HD/imgs/D0232_04HD_0165.png'
p1035
aS'/Volumes/nyee/datasets/frcnn_data/D0442_06HD/imgs/D0442_06HD_0346.png'
p1036
aS'/Volumes/nyee/datasets/frcnn_data/D008_03HD/imgs/D008_03HD_0175.png'
p1037
aS'/Volumes/nyee/datasets/frcnn_data/D0673_04HD/imgs/D0673_04HD_0107.png'
p1038
aS'/Volumes/nyee/datasets/frcnn_data/D008_03HD/imgs/D008_03HD_0113.png'
p1039
aS'/Volumes/nyee/datasets/frcnn_data/D0442_06HD/imgs/D0442_06HD_0321.png'
p1040
aS'/Volumes/nyee/datasets/frcnn_data/D0443_05HD/imgs/D0443_05HD_0083.png'
p1041
aS'/Volumes/nyee/datasets/frcnn_data/D0232_04HD/imgs/D0232_04HD_0028.png'
p1042
aS'/Volumes/nyee/datasets/frcnn_data/D0232_04HD/imgs/D0232_04HD_0292.png'
p1043
aS'/Volumes/nyee/datasets/frcnn_data/D0443_05HD/imgs/D0443_05HD_0154.png'
p1044
aS'/Volumes/nyee/datasets/frcnn_data/D008_03HD/imgs/D008_03HD_0345.png'
p1045
aS'/Volumes/nyee/datasets/frcnn_data/D008_03HD/imgs/D008_03HD_0256.png'
p1046
aS'/Volumes/nyee/datasets/frcnn_data/D0443_05HD/imgs/D0443_05HD_0204.png'
p1047
aS'/Volumes/nyee/datasets/frcnn_data/D0673_04HD/imgs/D0673_04HD_0027.png'
p1048
aS'/Volumes/nyee/datasets/frcnn_data/D0232_04HD/imgs/D0232_04HD_0345.png'
p1049
aS'/Volumes/nyee/datasets/frcnn_data/D0442_06HD/imgs/D0442_06HD_0134.png'
p1050
aS'/Volumes/nyee/datasets/frcnn_data/D0232_04HD/imgs/D0232_04HD_0281.png'
p1051
aS'/Volumes/nyee/datasets/frcnn_data/D0673_04HD/imgs/D0673_04HD_0016.png'
p1052
aS'/Volumes/nyee/datasets/frcnn_data/D0232_04HD/imgs/D0232_04HD_0200.png'
p1053
aS'/Volumes/nyee/datasets/frcnn_data/D0443_05HD/imgs/D0443_05HD_0286.png'
p1054
aS'/Volumes/nyee/datasets/frcnn_data/D0232_04HD/imgs/D0232_04HD_0180.png'
p1055
aS'/Volumes/nyee/datasets/frcnn_data/D0443_05HD/imgs/D0443_05HD_0093.png'
p1056
aS'/Volumes/nyee/datasets/frcnn_data/D0442_06HD/imgs/D0442_06HD_0227.png'
p1057
aS'/Volumes/nyee/datasets/frcnn_data/D0232_04HD/imgs/D0232_04HD_0226.png'
p1058
aS'/Volumes/nyee/datasets/frcnn_data/D008_03HD/imgs/D008_03HD_0128.png'
p1059
aS'/Volumes/nyee/datasets/frcnn_data/D0443_05HD/imgs/D0443_05HD_0133.png'
p1060
aS'/Volumes/nyee/datasets/frcnn_data/D0673_04HD/imgs/D0673_04HD_0120.png'
p1061
aS'/Volumes/nyee/datasets/frcnn_data/D0232_04HD/imgs/D0232_04HD_0087.png'
p1062
aS'/Volumes/nyee/datasets/frcnn_data/D0442_06HD/imgs/D0442_06HD_0049.png'
p1063
aS'/Volumes/nyee/datasets/frcnn_data/D008_03HD/imgs/D008_03HD_0343.png'
p1064
aS'/Volumes/nyee/datasets/frcnn_data/D0443_05HD/imgs/D0443_05HD_0152.png'
p1065
aS'/Volumes/nyee/datasets/frcnn_data/D0673_04HD/imgs/D0673_04HD_0170.png'
p1066
aS'/Volumes/nyee/datasets/frcnn_data/D0673_04HD/imgs/D0673_04HD_0164.png'
p1067
aS'/Volumes/nyee/datasets/frcnn_data/D0442_06HD/imgs/D0442_06HD_0237.png'
p1068
aS'/Volumes/nyee/datasets/frcnn_data/D0443_05HD/imgs/D0443_05HD_0174.png'
p1069
aS'/Volumes/nyee/datasets/frcnn_data/D0232_04HD/imgs/D0232_04HD_0190.png'
p1070
aS'/Volumes/nyee/datasets/frcnn_data/D0442_06HD/imgs/D0442_06HD_0122.png'
p1071
aS'/Volumes/nyee/datasets/frcnn_data/D008_03HD/imgs/D008_03HD_0325.png'
p1072
aS'/Volumes/nyee/datasets/frcnn_data/D0443_05HD/imgs/D0443_05HD_0328.png'
p1073
aS'/Volumes/nyee/datasets/frcnn_data/D0673_04HD/imgs/D0673_04HD_0003.png'
p1074
aS'/Volumes/nyee/datasets/frcnn_data/D0442_06HD/imgs/D0442_06HD_0253.png'
p1075
aS'/Volumes/nyee/datasets/frcnn_data/D008_03HD/imgs/D008_03HD_0099.png'
p1076
aS'/Volumes/nyee/datasets/frcnn_data/D0673_04HD/imgs/D0673_04HD_0040.png'
p1077
aS'/Volumes/nyee/datasets/frcnn_data/D008_03HD/imgs/D008_03HD_0360.png'
p1078
aS'/Volumes/nyee/datasets/frcnn_data/D0673_04HD/imgs/D0673_04HD_0156.png'
p1079
aS'/Volumes/nyee/datasets/frcnn_data/D0443_05HD/imgs/D0443_05HD_0296.png'
p1080
aS'/Volumes/nyee/datasets/frcnn_data/D0232_04HD/imgs/D0232_04HD_0220.png'
p1081
aS'/Volumes/nyee/datasets/frcnn_data/D0232_04HD/imgs/D0232_04HD_0135.png'
p1082
aS'/Volumes/nyee/datasets/frcnn_data/D0443_05HD/imgs/D0443_05HD_0284.png'
p1083
aS'/Volumes/nyee/datasets/frcnn_data/D0443_05HD/imgs/D0443_05HD_0100.png'
p1084
aS'/Volumes/nyee/datasets/frcnn_data/D0443_05HD/imgs/D0443_05HD_0254.png'
p1085
aS'/Volumes/nyee/datasets/frcnn_data/D0443_05HD/imgs/D0443_05HD_0062.png'
p1086
aS'/Volumes/nyee/datasets/frcnn_data/D0232_04HD/imgs/D0232_04HD_0035.png'
p1087
aS'/Volumes/nyee/datasets/frcnn_data/D008_03HD/imgs/D008_03HD_0233.png'
p1088
aS'/Volumes/nyee/datasets/frcnn_data/D0443_05HD/imgs/D0443_05HD_0373.png'
p1089
aS'/Volumes/nyee/datasets/frcnn_data/D0443_05HD/imgs/D0443_05HD_0237.png'
p1090
aS'/Volumes/nyee/datasets/frcnn_data/D0443_05HD/imgs/D0443_05HD_0353.png'
p1091
aS'/Volumes/nyee/datasets/frcnn_data/D0442_06HD/imgs/D0442_06HD_0015.png'
p1092
aS'/Volumes/nyee/datasets/frcnn_data/D008_03HD/imgs/D008_03HD_0036.png'
p1093
aS'/Volumes/nyee/datasets/frcnn_data/D0443_05HD/imgs/D0443_05HD_0007.png'
p1094
aS'/Volumes/nyee/datasets/frcnn_data/D008_03HD/imgs/D008_03HD_0216.png'
p1095
aS'/Volumes/nyee/datasets/frcnn_data/D0443_05HD/imgs/D0443_05HD_0079.png'
p1096
aS'/Volumes/nyee/datasets/frcnn_data/D0443_05HD/imgs/D0443_05HD_0142.png'
p1097
aS'/Volumes/nyee/datasets/frcnn_data/D008_03HD/imgs/D008_03HD_0331.png'
p1098
aS'/Volumes/nyee/datasets/frcnn_data/D0232_04HD/imgs/D0232_04HD_0076.png'
p1099
aS'/Volumes/nyee/datasets/frcnn_data/D0443_05HD/imgs/D0443_05HD_0110.png'
p1100
aS'/Volumes/nyee/datasets/frcnn_data/D008_03HD/imgs/D008_03HD_0301.png'
p1101
aS'/Volumes/nyee/datasets/frcnn_data/D008_03HD/imgs/D008_03HD_0191.png'
p1102
aS'/Volumes/nyee/datasets/frcnn_data/D0443_05HD/imgs/D0443_05HD_0352.png'
p1103
aS'/Volumes/nyee/datasets/frcnn_data/D0442_06HD/imgs/D0442_06HD_0210.png'
p1104
aS'/Volumes/nyee/datasets/frcnn_data/D0232_04HD/imgs/D0232_04HD_0232.png'
p1105
aS'/Volumes/nyee/datasets/frcnn_data/D0232_04HD/imgs/D0232_04HD_0222.png'
p1106
aS'/Volumes/nyee/datasets/frcnn_data/D0442_06HD/imgs/D0442_06HD_0250.png'
p1107
aS'/Volumes/nyee/datasets/frcnn_data/D0443_05HD/imgs/D0443_05HD_0041.png'
p1108
aS'/Volumes/nyee/datasets/frcnn_data/D0442_06HD/imgs/D0442_06HD_0057.png'
p1109
aS'/Volumes/nyee/datasets/frcnn_data/D0232_04HD/imgs/D0232_04HD_0111.png'
p1110
aS'/Volumes/nyee/datasets/frcnn_data/D0442_06HD/imgs/D0442_06HD_0287.png'
p1111
aS'/Volumes/nyee/datasets/frcnn_data/D008_03HD/imgs/D008_03HD_0169.png'
p1112
aS'/Volumes/nyee/datasets/frcnn_data/D0232_04HD/imgs/D0232_04HD_0009.png'
p1113
aS'/Volumes/nyee/datasets/frcnn_data/D0442_06HD/imgs/D0442_06HD_0343.png'
p1114
aS'/Volumes/nyee/datasets/frcnn_data/D0443_05HD/imgs/D0443_05HD_0252.png'
p1115
aS'/Volumes/nyee/datasets/frcnn_data/D0232_04HD/imgs/D0232_04HD_0037.png'
p1116
aS'/Volumes/nyee/datasets/frcnn_data/D0443_05HD/imgs/D0443_05HD_0027.png'
p1117
aS'/Volumes/nyee/datasets/frcnn_data/D0232_04HD/imgs/D0232_04HD_0113.png'
p1118
aS'/Volumes/nyee/datasets/frcnn_data/D008_03HD/imgs/D008_03HD_0276.png'
p1119
aS'/Volumes/nyee/datasets/frcnn_data/D008_03HD/imgs/D008_03HD_0134.png'
p1120
aS'/Volumes/nyee/datasets/frcnn_data/D0232_04HD/imgs/D0232_04HD_0107.png'
p1121
aS'/Volumes/nyee/datasets/frcnn_data/D0442_06HD/imgs/D0442_06HD_0105.png'
p1122
aS'/Volumes/nyee/datasets/frcnn_data/D0442_06HD/imgs/D0442_06HD_0093.png'
p1123
aS'/Volumes/nyee/datasets/frcnn_data/D008_03HD/imgs/D008_03HD_0185.png'
p1124
aS'/Volumes/nyee/datasets/frcnn_data/D0232_04HD/imgs/D0232_04HD_0291.png'
p1125
aS'/Volumes/nyee/datasets/frcnn_data/D0442_06HD/imgs/D0442_06HD_0182.png'
p1126
aS'/Volumes/nyee/datasets/frcnn_data/D0232_04HD/imgs/D0232_04HD_0194.png'
p1127
aS'/Volumes/nyee/datasets/frcnn_data/D008_03HD/imgs/D008_03HD_0065.png'
p1128
aS'/Volumes/nyee/datasets/frcnn_data/D008_03HD/imgs/D008_03HD_0295.png'
p1129
aS'/Volumes/nyee/datasets/frcnn_data/D0442_06HD/imgs/D0442_06HD_0001.png'
p1130
aS'/Volumes/nyee/datasets/frcnn_data/D008_03HD/imgs/D008_03HD_0245.png'
p1131
aS'/Volumes/nyee/datasets/frcnn_data/D0232_04HD/imgs/D0232_04HD_0127.png'
p1132
aS'/Volumes/nyee/datasets/frcnn_data/D0442_06HD/imgs/D0442_06HD_0032.png'
p1133
aS'/Volumes/nyee/datasets/frcnn_data/D0232_04HD/imgs/D0232_04HD_0358.png'
p1134
aS'/Volumes/nyee/datasets/frcnn_data/D0442_06HD/imgs/D0442_06HD_0219.png'
p1135
aS'/Volumes/nyee/datasets/frcnn_data/D0443_05HD/imgs/D0443_05HD_0344.png'
p1136
aS'/Volumes/nyee/datasets/frcnn_data/D0443_05HD/imgs/D0443_05HD_0292.png'
p1137
aS'/Volumes/nyee/datasets/frcnn_data/D0442_06HD/imgs/D0442_06HD_0040.png'
p1138
aS'/Volumes/nyee/datasets/frcnn_data/D0442_06HD/imgs/D0442_06HD_0025.png'
p1139
aS'/Volumes/nyee/datasets/frcnn_data/D0442_06HD/imgs/D0442_06HD_0318.png'
p1140
aS'/Volumes/nyee/datasets/frcnn_data/D0442_06HD/imgs/D0442_06HD_0239.png'
p1141
aS'/Volumes/nyee/datasets/frcnn_data/D0443_05HD/imgs/D0443_05HD_0233.png'
p1142
aS'/Volumes/nyee/datasets/frcnn_data/D0673_04HD/imgs/D0673_04HD_0071.png'
p1143
aS'/Volumes/nyee/datasets/frcnn_data/D0443_05HD/imgs/D0443_05HD_0191.png'
p1144
aS'/Volumes/nyee/datasets/frcnn_data/D0442_06HD/imgs/D0442_06HD_0055.png'
p1145
aS'/Volumes/nyee/datasets/frcnn_data/D0442_06HD/imgs/D0442_06HD_0067.png'
p1146
aS'/Volumes/nyee/datasets/frcnn_data/D0443_05HD/imgs/D0443_05HD_0089.png'
p1147
aS'/Volumes/nyee/datasets/frcnn_data/D0442_06HD/imgs/D0442_06HD_0341.png'
p1148
aS'/Volumes/nyee/datasets/frcnn_data/D008_03HD/imgs/D008_03HD_0337.png'
p1149
aS'/Volumes/nyee/datasets/frcnn_data/D0443_05HD/imgs/D0443_05HD_0316.png'
p1150
aS'/Volumes/nyee/datasets/frcnn_data/D0443_05HD/imgs/D0443_05HD_0144.png'
p1151
aS'/Volumes/nyee/datasets/frcnn_data/D0443_05HD/imgs/D0443_05HD_0187.png'
p1152
aS'/Volumes/nyee/datasets/frcnn_data/D008_03HD/imgs/D008_03HD_0305.png'
p1153
aS'/Volumes/nyee/datasets/frcnn_data/D0443_05HD/imgs/D0443_05HD_0114.png'
p1154
aS'/Volumes/nyee/datasets/frcnn_data/D0442_06HD/imgs/D0442_06HD_0101.png'
p1155
aS'/Volumes/nyee/datasets/frcnn_data/D008_03HD/imgs/D008_03HD_0297.png'
p1156
aS'/Volumes/nyee/datasets/frcnn_data/D0443_05HD/imgs/D0443_05HD_0301.png'
p1157
aS'/Volumes/nyee/datasets/frcnn_data/D0673_04HD/imgs/D0673_04HD_0023.png'
p1158
aS'/Volumes/nyee/datasets/frcnn_data/D0673_04HD/imgs/D0673_04HD_0044.png'
p1159
aS'/Volumes/nyee/datasets/frcnn_data/D008_03HD/imgs/D008_03HD_0358.png'
p1160
aS'/Volumes/nyee/datasets/frcnn_data/D0673_04HD/imgs/D0673_04HD_0050.png'
p1161
aS'/Volumes/nyee/datasets/frcnn_data/D0232_04HD/imgs/D0232_04HD_0125.png'
p1162
aS'/Volumes/nyee/datasets/frcnn_data/D0232_04HD/imgs/D0232_04HD_0365.png'
p1163
aS'/Volumes/nyee/datasets/frcnn_data/D0443_05HD/imgs/D0443_05HD_0283.png'
p1164
aS'/Volumes/nyee/datasets/frcnn_data/D0232_04HD/imgs/D0232_04HD_0210.png'
p1165
aS'/Volumes/nyee/datasets/frcnn_data/D0442_06HD/imgs/D0442_06HD_0244.png'
p1166
aS'/Volumes/nyee/datasets/frcnn_data/D0442_06HD/imgs/D0442_06HD_0299.png'
p1167
aS'/Volumes/nyee/datasets/frcnn_data/D0673_04HD/imgs/D0673_04HD_0236.png'
p1168
aS'/Volumes/nyee/datasets/frcnn_data/D0442_06HD/imgs/D0442_06HD_0214.png'
p1169
aS'/Volumes/nyee/datasets/frcnn_data/D0442_06HD/imgs/D0442_06HD_0208.png'
p1170
aS'/Volumes/nyee/datasets/frcnn_data/D008_03HD/imgs/D008_03HD_0195.png'
p1171
aS'/Volumes/nyee/datasets/frcnn_data/D0673_04HD/imgs/D0673_04HD_0062.png'
p1172
aS'/Volumes/nyee/datasets/frcnn_data/D0232_04HD/imgs/D0232_04HD_0308.png'
p1173
aS'/Volumes/nyee/datasets/frcnn_data/D0673_04HD/imgs/D0673_04HD_0229.png'
p1174
aS'/Volumes/nyee/datasets/frcnn_data/D008_03HD/imgs/D008_03HD_0130.png'
p1175
aS'/Volumes/nyee/datasets/frcnn_data/D0673_04HD/imgs/D0673_04HD_0073.png'
p1176
aS'/Volumes/nyee/datasets/frcnn_data/D0442_06HD/imgs/D0442_06HD_0084.png'
p1177
aS'/Volumes/nyee/datasets/frcnn_data/D0673_04HD/imgs/D0673_04HD_0081.png'
p1178
aS'/Volumes/nyee/datasets/frcnn_data/D0673_04HD/imgs/D0673_04HD_0116.png'
p1179
aS'/Volumes/nyee/datasets/frcnn_data/D0442_06HD/imgs/D0442_06HD_0098.png'
p1180
aS'/Volumes/nyee/datasets/frcnn_data/D0443_05HD/imgs/D0443_05HD_0271.png'
p1181
aS'/Volumes/nyee/datasets/frcnn_data/D0442_06HD/imgs/D0442_06HD_0061.png'
p1182
aS'/Volumes/nyee/datasets/frcnn_data/D008_03HD/imgs/D008_03HD_0063.png'
p1183
aS'/Volumes/nyee/datasets/frcnn_data/D0673_04HD/imgs/D0673_04HD_0173.png'
p1184
aS'/Volumes/nyee/datasets/frcnn_data/D0232_04HD/imgs/D0232_04HD_0167.png'
p1185
aS'/Volumes/nyee/datasets/frcnn_data/D0442_06HD/imgs/D0442_06HD_0172.png'
p1186
aS'/Volumes/nyee/datasets/frcnn_data/D0443_05HD/imgs/D0443_05HD_0137.png'
p1187
aS'/Volumes/nyee/datasets/frcnn_data/D008_03HD/imgs/D008_03HD_0051.png'
p1188
aS'/Volumes/nyee/datasets/frcnn_data/D0673_04HD/imgs/D0673_04HD_0105.png'
p1189
aS'/Volumes/nyee/datasets/frcnn_data/D0673_04HD/imgs/D0673_04HD_0084.png'
p1190
aS'/Volumes/nyee/datasets/frcnn_data/D0673_04HD/imgs/D0673_04HD_0197.png'
p1191
aS'/Volumes/nyee/datasets/frcnn_data/D008_03HD/imgs/D008_03HD_0262.png'
p1192
aS'/Volumes/nyee/datasets/frcnn_data/D0442_06HD/imgs/D0442_06HD_0103.png'
p1193
aS'/Volumes/nyee/datasets/frcnn_data/D0443_05HD/imgs/D0443_05HD_0375.png'
p1194
aS'/Volumes/nyee/datasets/frcnn_data/D008_03HD/imgs/D008_03HD_0084.png'
p1195
aS'/Volumes/nyee/datasets/frcnn_data/D0232_04HD/imgs/D0232_04HD_0351.png'
p1196
aS'/Volumes/nyee/datasets/frcnn_data/D0232_04HD/imgs/D0232_04HD_0367.png'
p1197
aS'/Volumes/nyee/datasets/frcnn_data/D0442_06HD/imgs/D0442_06HD_0138.png'
p1198
aS'/Volumes/nyee/datasets/frcnn_data/D0443_05HD/imgs/D0443_05HD_0175.png'
p1199
aS'/Volumes/nyee/datasets/frcnn_data/D0442_06HD/imgs/D0442_06HD_0201.png'
p1200
aS'/Volumes/nyee/datasets/frcnn_data/D0673_04HD/imgs/D0673_04HD_0244.png'
p1201
aS'/Volumes/nyee/datasets/frcnn_data/D008_03HD/imgs/D008_03HD_0324.png'
p1202
aS'/Volumes/nyee/datasets/frcnn_data/D008_03HD/imgs/D008_03HD_0091.png'
p1203
aS'/Volumes/nyee/datasets/frcnn_data/D0442_06HD/imgs/D0442_06HD_0021.png'
p1204
aS'/Volumes/nyee/datasets/frcnn_data/D0443_05HD/imgs/D0443_05HD_0127.png'
p1205
aS'/Volumes/nyee/datasets/frcnn_data/D0673_04HD/imgs/D0673_04HD_0102.png'
p1206
aS'/Volumes/nyee/datasets/frcnn_data/D0443_05HD/imgs/D0443_05HD_0277.png'
p1207
aS'/Volumes/nyee/datasets/frcnn_data/D0442_06HD/imgs/D0442_06HD_0270.png'
p1208
aS'/Volumes/nyee/datasets/frcnn_data/D008_03HD/imgs/D008_03HD_0154.png'
p1209
aS'/Volumes/nyee/datasets/frcnn_data/D0443_05HD/imgs/D0443_05HD_0227.png'
p1210
aS'/Volumes/nyee/datasets/frcnn_data/D008_03HD/imgs/D008_03HD_0302.png'
p1211
aS'/Volumes/nyee/datasets/frcnn_data/D0673_04HD/imgs/D0673_04HD_0135.png'
p1212
aS'/Volumes/nyee/datasets/frcnn_data/D008_03HD/imgs/D008_03HD_0013.png'
p1213
aS'/Volumes/nyee/datasets/frcnn_data/D0673_04HD/imgs/D0673_04HD_0204.png'
p1214
aS'/Volumes/nyee/datasets/frcnn_data/D008_03HD/imgs/D008_03HD_0172.png'
p1215
aS'/Volumes/nyee/datasets/frcnn_data/D0673_04HD/imgs/D0673_04HD_0087.png'
p1216
aS'/Volumes/nyee/datasets/frcnn_data/D008_03HD/imgs/D008_03HD_0287.png'
p1217
aS'/Volumes/nyee/datasets/frcnn_data/D008_03HD/imgs/D008_03HD_0032.png'
p1218
aS'/Volumes/nyee/datasets/frcnn_data/D0232_04HD/imgs/D0232_04HD_0157.png'
p1219
aS'/Volumes/nyee/datasets/frcnn_data/D0232_04HD/imgs/D0232_04HD_0081.png'
p1220
aS'/Volumes/nyee/datasets/frcnn_data/D008_03HD/imgs/D008_03HD_0270.png'
p1221
aS'/Volumes/nyee/datasets/frcnn_data/D0673_04HD/imgs/D0673_04HD_0178.png'
p1222
aS'/Volumes/nyee/datasets/frcnn_data/D0443_05HD/imgs/D0443_05HD_0021.png'
p1223
aS'/Volumes/nyee/datasets/frcnn_data/D008_03HD/imgs/D008_03HD_0086.png'
p1224
aS'/Volumes/nyee/datasets/frcnn_data/D0443_05HD/imgs/D0443_05HD_0333.png'
p1225
aS'/Volumes/nyee/datasets/frcnn_data/D0442_06HD/imgs/D0442_06HD_0052.png'
p1226
aS'/Volumes/nyee/datasets/frcnn_data/D008_03HD/imgs/D008_03HD_0322.png'
p1227
aS'/Volumes/nyee/datasets/frcnn_data/D0443_05HD/imgs/D0443_05HD_0173.png'
p1228
aS'/Volumes/nyee/datasets/frcnn_data/D0232_04HD/imgs/D0232_04HD_0102.png'
p1229
aS'/Volumes/nyee/datasets/frcnn_data/D0442_06HD/imgs/D0442_06HD_0303.png'
p1230
aS'/Volumes/nyee/datasets/frcnn_data/D008_03HD/imgs/D008_03HD_0004.png'
p1231
aS'/Volumes/nyee/datasets/frcnn_data/D008_03HD/imgs/D008_03HD_0174.png'
p1232
aS'/Volumes/nyee/datasets/frcnn_data/D0443_05HD/imgs/D0443_05HD_0275.png'
p1233
aS'/Volumes/nyee/datasets/frcnn_data/D0442_06HD/imgs/D0442_06HD_0113.png'
p1234
aS'/Volumes/nyee/datasets/frcnn_data/D0442_06HD/imgs/D0442_06HD_0297.png'
p1235
aS'/Volumes/nyee/datasets/frcnn_data/D0232_04HD/imgs/D0232_04HD_0338.png'
p1236
aS'/Volumes/nyee/datasets/frcnn_data/D008_03HD/imgs/D008_03HD_0011.png'
p1237
aS'/Volumes/nyee/datasets/frcnn_data/D0232_04HD/imgs/D0232_04HD_0010.png'
p1238
aS'/Volumes/nyee/datasets/frcnn_data/D008_03HD/imgs/D008_03HD_0023.png'
p1239
aS'/Volumes/nyee/datasets/frcnn_data/D0232_04HD/imgs/D0232_04HD_0040.png'
p1240
aS'/Volumes/nyee/datasets/frcnn_data/D0442_06HD/imgs/D0442_06HD_0017.png'
p1241
aS'/Volumes/nyee/datasets/frcnn_data/D0232_04HD/imgs/D0232_04HD_0054.png'
p1242
aS'/Volumes/nyee/datasets/frcnn_data/D0443_05HD/imgs/D0443_05HD_0193.png'
p1243
aS'/Volumes/nyee/datasets/frcnn_data/D008_03HD/imgs/D008_03HD_0059.png'
p1244
aS'/Volumes/nyee/datasets/frcnn_data/D0232_04HD/imgs/D0232_04HD_0256.png'
p1245
aS'/Volumes/nyee/datasets/frcnn_data/D008_03HD/imgs/D008_03HD_0210.png'
p1246
aS'/Volumes/nyee/datasets/frcnn_data/D0443_05HD/imgs/D0443_05HD_0001.png'
p1247
aS'/Volumes/nyee/datasets/frcnn_data/D0443_05HD/imgs/D0443_05HD_0354.png'
p1248
aS'/Volumes/nyee/datasets/frcnn_data/D0442_06HD/imgs/D0442_06HD_0009.png'
p1249
aS'/Volumes/nyee/datasets/frcnn_data/D0442_06HD/imgs/D0442_06HD_0159.png'
p1250
aS'/Volumes/nyee/datasets/frcnn_data/D0232_04HD/imgs/D0232_04HD_0319.png'
p1251
aS'/Volumes/nyee/datasets/frcnn_data/D0232_04HD/imgs/D0232_04HD_0066.png'
p1252
aS'/Volumes/nyee/datasets/frcnn_data/D0673_04HD/imgs/D0673_04HD_0181.png'
p1253
aS'/Volumes/nyee/datasets/frcnn_data/D0232_04HD/imgs/D0232_04HD_0359.png'
p1254
aS'/Volumes/nyee/datasets/frcnn_data/D0443_05HD/imgs/D0443_05HD_0182.png'
p1255
aS'/Volumes/nyee/datasets/frcnn_data/D0442_06HD/imgs/D0442_06HD_0333.png'
p1256
aS'/Volumes/nyee/datasets/frcnn_data/D008_03HD/imgs/D008_03HD_0176.png'
p1257
aS'/Volumes/nyee/datasets/frcnn_data/D008_03HD/imgs/D008_03HD_0166.png'
p1258
aS'/Volumes/nyee/datasets/frcnn_data/D0442_06HD/imgs/D0442_06HD_0136.png'
p1259
aS'/Volumes/nyee/datasets/frcnn_data/D0442_06HD/imgs/D0442_06HD_0048.png'
p1260
aS'/Volumes/nyee/datasets/frcnn_data/D0443_05HD/imgs/D0443_05HD_0289.png'
p1261
aS'/Volumes/nyee/datasets/frcnn_data/D0673_04HD/imgs/D0673_04HD_0202.png'
p1262
aS'/Volumes/nyee/datasets/frcnn_data/D0442_06HD/imgs/D0442_06HD_0160.png'
p1263
aS'/Volumes/nyee/datasets/frcnn_data/D0442_06HD/imgs/D0442_06HD_0322.png'
p1264
aS'/Volumes/nyee/datasets/frcnn_data/D008_03HD/imgs/D008_03HD_0025.png'
p1265
aS'/Volumes/nyee/datasets/frcnn_data/D0673_04HD/imgs/D0673_04HD_0047.png'
p1266
aS'/Volumes/nyee/datasets/frcnn_data/D0673_04HD/imgs/D0673_04HD_0039.png'
p1267
aS'/Volumes/nyee/datasets/frcnn_data/D008_03HD/imgs/D008_03HD_0251.png'
p1268
aS'/Volumes/nyee/datasets/frcnn_data/D008_03HD/imgs/D008_03HD_0321.png'
p1269
aS'/Volumes/nyee/datasets/frcnn_data/D0673_04HD/imgs/D0673_04HD_0263.png'
p1270
aS'/Volumes/nyee/datasets/frcnn_data/D0442_06HD/imgs/D0442_06HD_0202.png'
p1271
aS'/Volumes/nyee/datasets/frcnn_data/D0442_06HD/imgs/D0442_06HD_0184.png'
p1272
aS'/Volumes/nyee/datasets/frcnn_data/D0232_04HD/imgs/D0232_04HD_0196.png'
p1273
aS'/Volumes/nyee/datasets/frcnn_data/D0232_04HD/imgs/D0232_04HD_0205.png'
p1274
aS'/Volumes/nyee/datasets/frcnn_data/D0673_04HD/imgs/D0673_04HD_0232.png'
p1275
aS'/Volumes/nyee/datasets/frcnn_data/D0673_04HD/imgs/D0673_04HD_0215.png'
p1276
aS'/Volumes/nyee/datasets/frcnn_data/D0673_04HD/imgs/D0673_04HD_0227.png'
p1277
aS'/Volumes/nyee/datasets/frcnn_data/D0442_06HD/imgs/D0442_06HD_0314.png'
p1278
aS'/Volumes/nyee/datasets/frcnn_data/D0442_06HD/imgs/D0442_06HD_0235.png'
p1279
aS'/Volumes/nyee/datasets/frcnn_data/D0232_04HD/imgs/D0232_04HD_0235.png'
p1280
aS'/Volumes/nyee/datasets/frcnn_data/D0442_06HD/imgs/D0442_06HD_0261.png'
p1281
aS'/Volumes/nyee/datasets/frcnn_data/D0232_04HD/imgs/D0232_04HD_0001.png'
p1282
aS'/Volumes/nyee/datasets/frcnn_data/D0232_04HD/imgs/D0232_04HD_0088.png'
p1283
aS'/Volumes/nyee/datasets/frcnn_data/D0673_04HD/imgs/D0673_04HD_0154.png'
p1284
aS'/Volumes/nyee/datasets/frcnn_data/D0232_04HD/imgs/D0232_04HD_0191.png'
p1285
aS'/Volumes/nyee/datasets/frcnn_data/D0673_04HD/imgs/D0673_04HD_0148.png'
p1286
aS'/Volumes/nyee/datasets/frcnn_data/D0673_04HD/imgs/D0673_04HD_0163.png'
p1287
aS'/Volumes/nyee/datasets/frcnn_data/D0443_05HD/imgs/D0443_05HD_0322.png'
p1288
aS'/Volumes/nyee/datasets/frcnn_data/D0232_04HD/imgs/D0232_04HD_0184.png'
p1289
aS'/Volumes/nyee/datasets/frcnn_data/D0443_05HD/imgs/D0443_05HD_0349.png'
p1290
aS'/Volumes/nyee/datasets/frcnn_data/D008_03HD/imgs/D008_03HD_0228.png'
p1291
aS'/Volumes/nyee/datasets/frcnn_data/D0673_04HD/imgs/D0673_04HD_0250.png'
p1292
aS'/Volumes/nyee/datasets/frcnn_data/D0443_05HD/imgs/D0443_05HD_0167.png'
p1293
aS'/Volumes/nyee/datasets/frcnn_data/D0443_05HD/imgs/D0443_05HD_0129.png'
p1294
aS'/Volumes/nyee/datasets/frcnn_data/D0232_04HD/imgs/D0232_04HD_0152.png'
p1295
aS'/Volumes/nyee/datasets/frcnn_data/D008_03HD/imgs/D008_03HD_0310.png'
p1296
aS'/Volumes/nyee/datasets/frcnn_data/D0232_04HD/imgs/D0232_04HD_0048.png'
p1297
aS'/Volumes/nyee/datasets/frcnn_data/D0232_04HD/imgs/D0232_04HD_0171.png'
p1298
aS'/Volumes/nyee/datasets/frcnn_data/D0673_04HD/imgs/D0673_04HD_0140.png'
p1299
aS'/Volumes/nyee/datasets/frcnn_data/D0673_04HD/imgs/D0673_04HD_0248.png'
p1300
aS'/Volumes/nyee/datasets/frcnn_data/D008_03HD/imgs/D008_03HD_0307.png'
p1301
aS'/Volumes/nyee/datasets/frcnn_data/D0443_05HD/imgs/D0443_05HD_0116.png'
p1302
aS'/Volumes/nyee/datasets/frcnn_data/D0442_06HD/imgs/D0442_06HD_0364.png'
p1303
aS'/Volumes/nyee/datasets/frcnn_data/D0443_05HD/imgs/D0443_05HD_0040.png'
p1304
aS'/Volumes/nyee/datasets/frcnn_data/D008_03HD/imgs/D008_03HD_0016.png'
p1305
aS'/Volumes/nyee/datasets/frcnn_data/D0232_04HD/imgs/D0232_04HD_0008.png'
p1306
aS'/Volumes/nyee/datasets/frcnn_data/D0443_05HD/imgs/D0443_05HD_0242.png'
p1307
aS'/Volumes/nyee/datasets/frcnn_data/D008_03HD/imgs/D008_03HD_0219.png'
p1308
aS'/Volumes/nyee/datasets/frcnn_data/D0443_05HD/imgs/D0443_05HD_0081.png'
p1309
aS'/Volumes/nyee/datasets/frcnn_data/D0443_05HD/imgs/D0443_05HD_0008.png'
p1310
aS'/Volumes/nyee/datasets/frcnn_data/D0443_05HD/imgs/D0443_05HD_0111.png'
p1311
aS'/Volumes/nyee/datasets/frcnn_data/D0232_04HD/imgs/D0232_04HD_0068.png'
p1312
aS'/Volumes/nyee/datasets/frcnn_data/D0232_04HD/imgs/D0232_04HD_0311.png'
p1313
aS'/Volumes/nyee/datasets/frcnn_data/D0673_04HD/imgs/D0673_04HD_0068.png'
p1314
aS'/Volumes/nyee/datasets/frcnn_data/D0442_06HD/imgs/D0442_06HD_0377.png'
p1315
aS'/Volumes/nyee/datasets/frcnn_data/D0443_05HD/imgs/D0443_05HD_0223.png'
p1316
aS'/Volumes/nyee/datasets/frcnn_data/D008_03HD/imgs/D008_03HD_0283.png'
p1317
aS'/Volumes/nyee/datasets/frcnn_data/D0443_05HD/imgs/D0443_05HD_0104.png'
p1318
aS'/Volumes/nyee/datasets/frcnn_data/D0232_04HD/imgs/D0232_04HD_0144.png'
p1319
aS'/Volumes/nyee/datasets/frcnn_data/D0673_04HD/imgs/D0673_04HD_0256.png'
p1320
aS'/Volumes/nyee/datasets/frcnn_data/D008_03HD/imgs/D008_03HD_0044.png'
p1321
aS'/Volumes/nyee/datasets/frcnn_data/D0673_04HD/imgs/D0673_04HD_0168.png'
p1322
aS'/Volumes/nyee/datasets/frcnn_data/D0232_04HD/imgs/D0232_04HD_0203.png'
p1323
aS'/Volumes/nyee/datasets/frcnn_data/D008_03HD/imgs/D008_03HD_0355.png'
p1324
aS'/Volumes/nyee/datasets/frcnn_data/D008_03HD/imgs/D008_03HD_0259.png'
p1325
aS'/Volumes/nyee/datasets/frcnn_data/D0442_06HD/imgs/D0442_06HD_0170.png'
p1326
aS'/Volumes/nyee/datasets/frcnn_data/D0442_06HD/imgs/D0442_06HD_0306.png'
p1327
aS'/Volumes/nyee/datasets/frcnn_data/D0443_05HD/imgs/D0443_05HD_0071.png'
p1328
aS'/Volumes/nyee/datasets/frcnn_data/D0442_06HD/imgs/D0442_06HD_0199.png'
p1329
aS'/Volumes/nyee/datasets/frcnn_data/D008_03HD/imgs/D008_03HD_0053.png'
p1330
aS'/Volumes/nyee/datasets/frcnn_data/D0232_04HD/imgs/D0232_04HD_0231.png'
p1331
aS'/Volumes/nyee/datasets/frcnn_data/D0443_05HD/imgs/D0443_05HD_0052.png'
p1332
aS'/Volumes/nyee/datasets/frcnn_data/D0443_05HD/imgs/D0443_05HD_0042.png'
p1333
aS'/Volumes/nyee/datasets/frcnn_data/D0232_04HD/imgs/D0232_04HD_0381.png'
p1334
aS'/Volumes/nyee/datasets/frcnn_data/D0443_05HD/imgs/D0443_05HD_0088.png'
p1335
aS'/Volumes/nyee/datasets/frcnn_data/D0443_05HD/imgs/D0443_05HD_0240.png'
p1336
aS'/Volumes/nyee/datasets/frcnn_data/D008_03HD/imgs/D008_03HD_0127.png'
p1337
aS'/Volumes/nyee/datasets/frcnn_data/D0232_04HD/imgs/D0232_04HD_0005.png'
p1338
aS'/Volumes/nyee/datasets/frcnn_data/D0442_06HD/imgs/D0442_06HD_0042.png'
p1339
aS'/Volumes/nyee/datasets/frcnn_data/D008_03HD/imgs/D008_03HD_0054.png'
p1340
aS'/Volumes/nyee/datasets/frcnn_data/D008_03HD/imgs/D008_03HD_0072.png'
p1341
aS'/Volumes/nyee/datasets/frcnn_data/D0443_05HD/imgs/D0443_05HD_0310.png'
p1342
aS'/Volumes/nyee/datasets/frcnn_data/D0442_06HD/imgs/D0442_06HD_0035.png'
p1343
aS'/Volumes/nyee/datasets/frcnn_data/D0442_06HD/imgs/D0442_06HD_0283.png'
p1344
aS'/Volumes/nyee/datasets/frcnn_data/D0232_04HD/imgs/D0232_04HD_0273.png'
p1345
aS'/Volumes/nyee/datasets/frcnn_data/D0443_05HD/imgs/D0443_05HD_0319.png'
p1346
aS'/Volumes/nyee/datasets/frcnn_data/D008_03HD/imgs/D008_03HD_0089.png'
p1347
aS'/Volumes/nyee/datasets/frcnn_data/D0442_06HD/imgs/D0442_06HD_0162.png'
p1348
aS'/Volumes/nyee/datasets/frcnn_data/D0673_04HD/imgs/D0673_04HD_0126.png'
p1349
aS'/Volumes/nyee/datasets/frcnn_data/D0232_04HD/imgs/D0232_04HD_0252.png'
p1350
aS'/Volumes/nyee/datasets/frcnn_data/D0442_06HD/imgs/D0442_06HD_0126.png'
p1351
aS'/Volumes/nyee/datasets/frcnn_data/D0673_04HD/imgs/D0673_04HD_0096.png'
p1352
aS'/Volumes/nyee/datasets/frcnn_data/D0442_06HD/imgs/D0442_06HD_0246.png'
p1353
aS'/Volumes/nyee/datasets/frcnn_data/D0443_05HD/imgs/D0443_05HD_0246.png'
p1354
aS'/Volumes/nyee/datasets/frcnn_data/D0673_04HD/imgs/D0673_04HD_0086.png'
p1355
aS'/Volumes/nyee/datasets/frcnn_data/D0673_04HD/imgs/D0673_04HD_0207.png'
p1356
aS'/Volumes/nyee/datasets/frcnn_data/D0443_05HD/imgs/D0443_05HD_0260.png'
p1357
aS'/Volumes/nyee/datasets/frcnn_data/D0232_04HD/imgs/D0232_04HD_0032.png'
p1358
aS'/Volumes/nyee/datasets/frcnn_data/D0442_06HD/imgs/D0442_06HD_0334.png'
p1359
aS'/Volumes/nyee/datasets/frcnn_data/D0232_04HD/imgs/D0232_04HD_0337.png'
p1360
aS'/Volumes/nyee/datasets/frcnn_data/D008_03HD/imgs/D008_03HD_0125.png'
p1361
aS'/Volumes/nyee/datasets/frcnn_data/D0443_05HD/imgs/D0443_05HD_0085.png'
p1362
aS'/Volumes/nyee/datasets/frcnn_data/D0443_05HD/imgs/D0443_05HD_0069.png'
p1363
aS'/Volumes/nyee/datasets/frcnn_data/D008_03HD/imgs/D008_03HD_0238.png'
p1364
aS'/Volumes/nyee/datasets/frcnn_data/D0232_04HD/imgs/D0232_04HD_0264.png'
p1365
aS'/Volumes/nyee/datasets/frcnn_data/D008_03HD/imgs/D008_03HD_0187.png'
p1366
aS'/Volumes/nyee/datasets/frcnn_data/D0232_04HD/imgs/D0232_04HD_0021.png'
p1367
aS'/Volumes/nyee/datasets/frcnn_data/D008_03HD/imgs/D008_03HD_0056.png'
p1368
aS'/Volumes/nyee/datasets/frcnn_data/D0443_05HD/imgs/D0443_05HD_0374.png'
p1369
aS'/Volumes/nyee/datasets/frcnn_data/D0673_04HD/imgs/D0673_04HD_0057.png'
p1370
aS'/Volumes/nyee/datasets/frcnn_data/D0232_04HD/imgs/D0232_04HD_0271.png'
p1371
aS'/Volumes/nyee/datasets/frcnn_data/D0443_05HD/imgs/D0443_05HD_0294.png'
p1372
aS'/Volumes/nyee/datasets/frcnn_data/D0442_06HD/imgs/D0442_06HD_0141.png'
p1373
aS'/Volumes/nyee/datasets/frcnn_data/D0442_06HD/imgs/D0442_06HD_0087.png'
p1374
aS'/Volumes/nyee/datasets/frcnn_data/D0232_04HD/imgs/D0232_04HD_0243.png'
p1375
aS'/Volumes/nyee/datasets/frcnn_data/D0232_04HD/imgs/D0232_04HD_0086.png'
p1376
aS'/Volumes/nyee/datasets/frcnn_data/D0673_04HD/imgs/D0673_04HD_0006.png'
p1377
aS'/Volumes/nyee/datasets/frcnn_data/D0673_04HD/imgs/D0673_04HD_0216.png'
p1378
aS'/Volumes/nyee/datasets/frcnn_data/D0442_06HD/imgs/D0442_06HD_0217.png'
p1379
aS'/Volumes/nyee/datasets/frcnn_data/D008_03HD/imgs/D008_03HD_0182.png'
p1380
aS'/Volumes/nyee/datasets/frcnn_data/D0232_04HD/imgs/D0232_04HD_0239.png'
p1381
aS'/Volumes/nyee/datasets/frcnn_data/D0443_05HD/imgs/D0443_05HD_0250.png'
p1382
aS'/Volumes/nyee/datasets/frcnn_data/D0673_04HD/imgs/D0673_04HD_0242.png'
p1383
aS'/Volumes/nyee/datasets/frcnn_data/D0232_04HD/imgs/D0232_04HD_0018.png'
p1384
aS'/Volumes/nyee/datasets/frcnn_data/D008_03HD/imgs/D008_03HD_0123.png'
p1385
aS'/Volumes/nyee/datasets/frcnn_data/D0673_04HD/imgs/D0673_04HD_0134.png'
p1386
aS'/Volumes/nyee/datasets/frcnn_data/D0442_06HD/imgs/D0442_06HD_0097.png'
p1387
aS'/Volumes/nyee/datasets/frcnn_data/D0442_06HD/imgs/D0442_06HD_0344.png'
p1388
aS'/Volumes/nyee/datasets/frcnn_data/D008_03HD/imgs/D008_03HD_0145.png'
p1389
aS'/Volumes/nyee/datasets/frcnn_data/D008_03HD/imgs/D008_03HD_0100.png'
p1390
aS'/Volumes/nyee/datasets/frcnn_data/D0232_04HD/imgs/D0232_04HD_0112.png'
p1391
aS'/Volumes/nyee/datasets/frcnn_data/D0673_04HD/imgs/D0673_04HD_0119.png'
p1392
aS'/Volumes/nyee/datasets/frcnn_data/D0443_05HD/imgs/D0443_05HD_0125.png'
p1393
aS'/Volumes/nyee/datasets/frcnn_data/D0673_04HD/imgs/D0673_04HD_0245.png'
p1394
aS'/Volumes/nyee/datasets/frcnn_data/D0232_04HD/imgs/D0232_04HD_0080.png'
p1395
aS'/Volumes/nyee/datasets/frcnn_data/D0442_06HD/imgs/D0442_06HD_0353.png'
p1396
aS'/Volumes/nyee/datasets/frcnn_data/D008_03HD/imgs/D008_03HD_0271.png'
p1397
aS'/Volumes/nyee/datasets/frcnn_data/D0443_05HD/imgs/D0443_05HD_0020.png'
p1398
aS'/Volumes/nyee/datasets/frcnn_data/D0673_04HD/imgs/D0673_04HD_0144.png'
p1399
aS'/Volumes/nyee/datasets/frcnn_data/D0443_05HD/imgs/D0443_05HD_0229.png'
p1400
aS'/Volumes/nyee/datasets/frcnn_data/D0673_04HD/imgs/D0673_04HD_0258.png'
p1401
aS'/Volumes/nyee/datasets/frcnn_data/D008_03HD/imgs/D008_03HD_0193.png'
p1402
aS'/Volumes/nyee/datasets/frcnn_data/D0443_05HD/imgs/D0443_05HD_0006.png'
p1403
aS'/Volumes/nyee/datasets/frcnn_data/D008_03HD/imgs/D008_03HD_0217.png'
p1404
aS'/Volumes/nyee/datasets/frcnn_data/D0232_04HD/imgs/D0232_04HD_0245.png'
p1405
aS'/Volumes/nyee/datasets/frcnn_data/D0443_05HD/imgs/D0443_05HD_0346.png'
p1406
aS'/Volumes/nyee/datasets/frcnn_data/D0443_05HD/imgs/D0443_05HD_0098.png'
p1407
aS'/Volumes/nyee/datasets/frcnn_data/D008_03HD/imgs/D008_03HD_0353.png'
p1408
aS'/Volumes/nyee/datasets/frcnn_data/D008_03HD/imgs/D008_03HD_0151.png'
p1409
aS'/Volumes/nyee/datasets/frcnn_data/D0442_06HD/imgs/D0442_06HD_0368.png'
p1410
aS'/Volumes/nyee/datasets/frcnn_data/D0443_05HD/imgs/D0443_05HD_0356.png'
p1411
aS'/Volumes/nyee/datasets/frcnn_data/D0442_06HD/imgs/D0442_06HD_0379.png'
p1412
aS'/Volumes/nyee/datasets/frcnn_data/D0443_05HD/imgs/D0443_05HD_0269.png'
p1413
aS'/Volumes/nyee/datasets/frcnn_data/D0673_04HD/imgs/D0673_04HD_0136.png'
p1414
aS'/Volumes/nyee/datasets/frcnn_data/D0232_04HD/imgs/D0232_04HD_0289.png'
p1415
aS'/Volumes/nyee/datasets/frcnn_data/D0442_06HD/imgs/D0442_06HD_0071.png'
p1416
aS'/Volumes/nyee/datasets/frcnn_data/D008_03HD/imgs/D008_03HD_0161.png'
p1417
aS'/Volumes/nyee/datasets/frcnn_data/D0443_05HD/imgs/D0443_05HD_0221.png'
p1418
aS'/Volumes/nyee/datasets/frcnn_data/D008_03HD/imgs/D008_03HD_0012.png'
p1419
aS'/Volumes/nyee/datasets/frcnn_data/D0442_06HD/imgs/D0442_06HD_0010.png'
p1420
aS'/Volumes/nyee/datasets/frcnn_data/D008_03HD/imgs/D008_03HD_0006.png'
p1421
aS'/Volumes/nyee/datasets/frcnn_data/D0232_04HD/imgs/D0232_04HD_0140.png'
p1422
aS'/Volumes/nyee/datasets/frcnn_data/D008_03HD/imgs/D008_03HD_0211.png'
p1423
aS'/Volumes/nyee/datasets/frcnn_data/D0232_04HD/imgs/D0232_04HD_0092.png'
p1424
aS'/Volumes/nyee/datasets/frcnn_data/D0232_04HD/imgs/D0232_04HD_0082.png'
p1425
aS'/Volumes/nyee/datasets/frcnn_data/D0673_04HD/imgs/D0673_04HD_0183.png'
p1426
aS'/Volumes/nyee/datasets/frcnn_data/D0442_06HD/imgs/D0442_06HD_0259.png'
p1427
aS'/Volumes/nyee/datasets/frcnn_data/D0443_05HD/imgs/D0443_05HD_0092.png'
p1428
aS'/Volumes/nyee/datasets/frcnn_data/D008_03HD/imgs/D008_03HD_0104.png'
p1429
aS'/Volumes/nyee/datasets/frcnn_data/D0443_05HD/imgs/D0443_05HD_0202.png'
p1430
aS'/Volumes/nyee/datasets/frcnn_data/D0442_06HD/imgs/D0442_06HD_0027.png'
p1431
aS'/Volumes/nyee/datasets/frcnn_data/D0232_04HD/imgs/D0232_04HD_0173.png'
p1432
aS'/Volumes/nyee/datasets/frcnn_data/D0442_06HD/imgs/D0442_06HD_0183.png'
p1433
aS'/Volumes/nyee/datasets/frcnn_data/D0442_06HD/imgs/D0442_06HD_0123.png'
p1434
aS'/Volumes/nyee/datasets/frcnn_data/D008_03HD/imgs/D008_03HD_00-00-00.png'
p1435
aS'/Volumes/nyee/datasets/frcnn_data/D0232_04HD/imgs/D0232_04HD_0323.png'
p1436
aS'/Volumes/nyee/datasets/frcnn_data/D0232_04HD/imgs/D0232_04HD_0122.png'
p1437
aS'/Volumes/nyee/datasets/frcnn_data/D0232_04HD/imgs/D0232_04HD_0105.png'
p1438
aS'/Volumes/nyee/datasets/frcnn_data/D0443_05HD/imgs/D0443_05HD_0213.png'
p1439
aS'/Volumes/nyee/datasets/frcnn_data/D0232_04HD/imgs/D0232_04HD_0137.png'
p1440
aS'/Volumes/nyee/datasets/frcnn_data/D0232_04HD/imgs/D0232_04HD_0379.png'
p1441
aS'/Volumes/nyee/datasets/frcnn_data/D0442_06HD/imgs/D0442_06HD_0269.png'
p1442
aS'/Volumes/nyee/datasets/frcnn_data/D0232_04HD/imgs/D0232_04HD_0031.png'
p1443
aS'/Volumes/nyee/datasets/frcnn_data/D0443_05HD/imgs/D0443_05HD_0288.png'
p1444
aS'/Volumes/nyee/datasets/frcnn_data/D0232_04HD/imgs/D0232_04HD_0276.png'
p1445
aS'/Volumes/nyee/datasets/frcnn_data/D0232_04HD/imgs/D0232_04HD_0163.png'
p1446
aS'/Volumes/nyee/datasets/frcnn_data/D0232_04HD/imgs/D0232_04HD_0064.png'
p1447
aS'/Volumes/nyee/datasets/frcnn_data/D0673_04HD/imgs/D0673_04HD_0093.png'
p1448
aS'/Volumes/nyee/datasets/frcnn_data/D0232_04HD/imgs/D0232_04HD_0053.png'
p1449
aS'/Volumes/nyee/datasets/frcnn_data/D0443_05HD/imgs/D0443_05HD_0248.png'
p1450
aS'/Volumes/nyee/datasets/frcnn_data/D0442_06HD/imgs/D0442_06HD_0178.png'
p1451
aS'/Volumes/nyee/datasets/frcnn_data/D008_03HD/imgs/D008_03HD_0225.png'
p1452
aS'/Volumes/nyee/datasets/frcnn_data/D0442_06HD/imgs/D0442_06HD_0099.png'
p1453
aS'/Volumes/nyee/datasets/frcnn_data/D0443_05HD/imgs/D0443_05HD_0012.png'
p1454
aS'/Volumes/nyee/datasets/frcnn_data/D0442_06HD/imgs/D0442_06HD_0185.png'
p1455
aS'/Volumes/nyee/datasets/frcnn_data/D0443_05HD/imgs/D0443_05HD_0002.png'
p1456
aS'/Volumes/nyee/datasets/frcnn_data/D008_03HD/imgs/D008_03HD_0076.png'
p1457
aS'/Volumes/nyee/datasets/frcnn_data/D0232_04HD/imgs/D0232_04HD_0176.png'
p1458
aS'/Volumes/nyee/datasets/frcnn_data/D0443_05HD/imgs/D0443_05HD_0200.png'
p1459
aS'/Volumes/nyee/datasets/frcnn_data/D0442_06HD/imgs/D0442_06HD_0223.png'
p1460
aS'/Volumes/nyee/datasets/frcnn_data/D0232_04HD/imgs/D0232_04HD_0158.png'
p1461
aS'/Volumes/nyee/datasets/frcnn_data/D0232_04HD/imgs/D0232_04HD_0224.png'
p1462
aS'/Volumes/nyee/datasets/frcnn_data/D0442_06HD/imgs/D0442_06HD_0157.png'
p1463
aS'/Volumes/nyee/datasets/frcnn_data/D0442_06HD/imgs/D0442_06HD_0121.png'
p1464
aS'/Volumes/nyee/datasets/frcnn_data/D0442_06HD/imgs/D0442_06HD_0252.png'
p1465
aS'/Volumes/nyee/datasets/frcnn_data/D0443_05HD/imgs/D0443_05HD_0185.png'
p1466
aS'/Volumes/nyee/datasets/frcnn_data/D008_03HD/imgs/D008_03HD_0114.png'
p1467
aS'/Volumes/nyee/datasets/frcnn_data/D008_03HD/imgs/D008_03HD_0165.png'
p1468
aS'/Volumes/nyee/datasets/frcnn_data/D0232_04HD/imgs/D0232_04HD_0233.png'
p1469
aS'/Volumes/nyee/datasets/frcnn_data/D008_03HD/imgs/D008_03HD_0138.png'
p1470
aS'/Volumes/nyee/datasets/frcnn_data/D0443_05HD/imgs/D0443_05HD_0239.png'
p1471
aS'/Volumes/nyee/datasets/frcnn_data/D0442_06HD/imgs/D0442_06HD_0078.png'
p1472
aS'/Volumes/nyee/datasets/frcnn_data/D0232_04HD/imgs/D0232_04HD_0185.png'
p1473
aS'/Volumes/nyee/datasets/frcnn_data/D0442_06HD/imgs/D0442_06HD_0316.png'
p1474
aS'/Volumes/nyee/datasets/frcnn_data/D0443_05HD/imgs/D0443_05HD_0261.png'
p1475
aS'/Volumes/nyee/datasets/frcnn_data/D0443_05HD/imgs/D0443_05HD_0138.png'
p1476
aS'/Volumes/nyee/datasets/frcnn_data/D0232_04HD/imgs/D0232_04HD_0316.png'
p1477
aS'/Volumes/nyee/datasets/frcnn_data/D0442_06HD/imgs/D0442_06HD_0039.png'
p1478
aS'/Volumes/nyee/datasets/frcnn_data/D0232_04HD/imgs/D0232_04HD_0234.png'
p1479
aS'/Volumes/nyee/datasets/frcnn_data/D0442_06HD/imgs/D0442_06HD_0187.png'
p1480
aS'/Volumes/nyee/datasets/frcnn_data/D0673_04HD/imgs/D0673_04HD_0035.png'
p1481
aS'/Volumes/nyee/datasets/frcnn_data/D0232_04HD/imgs/D0232_04HD_0212.png'
p1482
aS'/Volumes/nyee/datasets/frcnn_data/D0442_06HD/imgs/D0442_06HD_0019.png'
p1483
aS'/Volumes/nyee/datasets/frcnn_data/D0673_04HD/imgs/D0673_04HD_0220.png'
p1484
aS'/Volumes/nyee/datasets/frcnn_data/D0232_04HD/imgs/D0232_04HD_0043.png'
p1485
aS'/Volumes/nyee/datasets/frcnn_data/D0673_04HD/imgs/D0673_04HD_0161.png'
p1486
aS'/Volumes/nyee/datasets/frcnn_data/D0443_05HD/imgs/D0443_05HD_0298.png'
p1487
aS'/Volumes/nyee/datasets/frcnn_data/D0442_06HD/imgs/D0442_06HD_0362.png'
p1488
aS'/Volumes/nyee/datasets/frcnn_data/D008_03HD/imgs/D008_03HD_0081.png'
p1489
aS'/Volumes/nyee/datasets/frcnn_data/D0442_06HD/imgs/D0442_06HD_0293.png'
p1490
aS'/Volumes/nyee/datasets/frcnn_data/D008_03HD/imgs/D008_03HD_0186.png'
p1491
aS'/Volumes/nyee/datasets/frcnn_data/D0232_04HD/imgs/D0232_04HD_0117.png'
p1492
aS'/Volumes/nyee/datasets/frcnn_data/D0443_05HD/imgs/D0443_05HD_0280.png'
p1493
aS'/Volumes/nyee/datasets/frcnn_data/D0232_04HD/imgs/D0232_04HD_0293.png'
p1494
aS'/Volumes/nyee/datasets/frcnn_data/D0232_04HD/imgs/D0232_04HD_0368.png'
p1495
aS'/Volumes/nyee/datasets/frcnn_data/D0442_06HD/imgs/D0442_06HD_0059.png'
p1496
aS'/Volumes/nyee/datasets/frcnn_data/D0443_05HD/imgs/D0443_05HD_0105.png'
p1497
aS'/Volumes/nyee/datasets/frcnn_data/D0232_04HD/imgs/D0232_04HD_0187.png'
p1498
aS'/Volumes/nyee/datasets/frcnn_data/D0232_04HD/imgs/D0232_04HD_0145.png'
p1499
aS'/Volumes/nyee/datasets/frcnn_data/D008_03HD/imgs/D008_03HD_0144.png'
p1500
aS'/Volumes/nyee/datasets/frcnn_data/D0443_05HD/imgs/D0443_05HD_0030.png'
p1501
aS'/Volumes/nyee/datasets/frcnn_data/D0443_05HD/imgs/D0443_05HD_0307.png'
p1502
aS'/Volumes/nyee/datasets/frcnn_data/D008_03HD/imgs/D008_03HD_0203.png'
p1503
aS'/Volumes/nyee/datasets/frcnn_data/D008_03HD/imgs/D008_03HD_0078.png'
p1504
aS'/Volumes/nyee/datasets/frcnn_data/D0443_05HD/imgs/D0443_05HD_0168.png'
p1505
aS'/Volumes/nyee/datasets/frcnn_data/D0673_04HD/imgs/D0673_04HD_0037.png'
p1506
aS'/Volumes/nyee/datasets/frcnn_data/D008_03HD/imgs/D008_03HD_0252.png'
p1507
aS'/Volumes/nyee/datasets/frcnn_data/D0232_04HD/imgs/D0232_04HD_0283.png'
p1508
aS'/Volumes/nyee/datasets/frcnn_data/D0673_04HD/imgs/D0673_04HD_0058.png'
p1509
aS'/Volumes/nyee/datasets/frcnn_data/D0232_04HD/imgs/D0232_04HD_0329.png'
p1510
aS'/Volumes/nyee/datasets/frcnn_data/D0442_06HD/imgs/D0442_06HD_0380.png'
p1511
aS'/Volumes/nyee/datasets/frcnn_data/D0442_06HD/imgs/D0442_06HD_0215.png'
p1512
aS'/Volumes/nyee/datasets/frcnn_data/D0442_06HD/imgs/D0442_06HD_0330.png'
p1513
aS'/Volumes/nyee/datasets/frcnn_data/D0443_05HD/imgs/D0443_05HD_0197.png'
p1514
aS'/Volumes/nyee/datasets/frcnn_data/D008_03HD/imgs/D008_03HD_0088.png'
p1515
aS'/Volumes/nyee/datasets/frcnn_data/D0232_04HD/imgs/D0232_04HD_0312.png'
p1516
aS'/Volumes/nyee/datasets/frcnn_data/D0442_06HD/imgs/D0442_06HD_0360.png'
p1517
aS'/Volumes/nyee/datasets/frcnn_data/D0673_04HD/imgs/D0673_04HD_0209.png'
p1518
aS'/Volumes/nyee/datasets/frcnn_data/D008_03HD/imgs/D008_03HD_0209.png'
p1519
aS'/Volumes/nyee/datasets/frcnn_data/D0443_05HD/imgs/D0443_05HD_0131.png'
p1520
aS'/Volumes/nyee/datasets/frcnn_data/D0442_06HD/imgs/D0442_06HD_0282.png'
p1521
aS'/Volumes/nyee/datasets/frcnn_data/D0443_05HD/imgs/D0443_05HD_0107.png'
p1522
aS'/Volumes/nyee/datasets/frcnn_data/D008_03HD/imgs/D008_03HD_0142.png'
p1523
aS'/Volumes/nyee/datasets/frcnn_data/D008_03HD/imgs/D008_03HD_0019.png'
p1524
aS'/Volumes/nyee/datasets/frcnn_data/D0232_04HD/imgs/D0232_04HD_0147.png'
p1525
aS'/Volumes/nyee/datasets/frcnn_data/D0232_04HD/imgs/D0232_04HD_0059.png'
p1526
aS'/Volumes/nyee/datasets/frcnn_data/D008_03HD/imgs/D008_03HD_0264.png'
p1527
aS'/Volumes/nyee/datasets/frcnn_data/D0443_05HD/imgs/D0443_05HD_0216.png'
p1528
aS'/Volumes/nyee/datasets/frcnn_data/D0673_04HD/imgs/D0673_04HD_0176.png'
p1529
aS'/Volumes/nyee/datasets/frcnn_data/D0232_04HD/imgs/D0232_04HD_0148.png'
p1530
aS'/Volumes/nyee/datasets/frcnn_data/D0442_06HD/imgs/D0442_06HD_0163.png'
p1531
aS'/Volumes/nyee/datasets/frcnn_data/D008_03HD/imgs/D008_03HD_0249.png'
p1532
aS'/Volumes/nyee/datasets/frcnn_data/D0232_04HD/imgs/D0232_04HD_0060.png'
p1533
aS'/Volumes/nyee/datasets/frcnn_data/D0232_04HD/imgs/D0232_04HD_0109.png'
p1534
aS'/Volumes/nyee/datasets/frcnn_data/D0442_06HD/imgs/D0442_06HD_0037.png'
p1535
aS'/Volumes/nyee/datasets/frcnn_data/D0232_04HD/imgs/D0232_04HD_0350.png'
p1536
aS'/Volumes/nyee/datasets/frcnn_data/D008_03HD/imgs/D008_03HD_0199.png'
p1537
aS'/Volumes/nyee/datasets/frcnn_data/D0443_05HD/imgs/D0443_05HD_0309.png'
p1538
aS'/Volumes/nyee/datasets/frcnn_data/D008_03HD/imgs/D008_03HD_0338.png'
p1539
aS'/Volumes/nyee/datasets/frcnn_data/D0442_06HD/imgs/D0442_06HD_0221.png'
p1540
aS'/Volumes/nyee/datasets/frcnn_data/D0232_04HD/imgs/D0232_04HD_0006.png'
p1541
aS'/Volumes/nyee/datasets/frcnn_data/D0442_06HD/imgs/D0442_06HD_0051.png'
p1542
aS'/Volumes/nyee/datasets/frcnn_data/D0442_06HD/imgs/D0442_06HD_0265.png'
p1543
aS'/Volumes/nyee/datasets/frcnn_data/D0443_05HD/imgs/D0443_05HD_0303.png'
p1544
aS'/Volumes/nyee/datasets/frcnn_data/D0673_04HD/imgs/D0673_04HD_0008.png'
p1545
aS'/Volumes/nyee/datasets/frcnn_data/D0442_06HD/imgs/D0442_06HD_0280.png'
p1546
aS'/Volumes/nyee/datasets/frcnn_data/D008_03HD/imgs/D008_03HD_0028.png'
p1547
aS'/Volumes/nyee/datasets/frcnn_data/D008_03HD/imgs/D008_03HD_0034.png'
p1548
aS'/Volumes/nyee/datasets/frcnn_data/D0673_04HD/imgs/D0673_04HD_0092.png'
p1549
aS'/Volumes/nyee/datasets/frcnn_data/D0443_05HD/imgs/D0443_05HD_0365.png'
p1550
aS'/Volumes/nyee/datasets/frcnn_data/D0232_04HD/imgs/D0232_04HD_0155.png'
p1551
aS'/Volumes/nyee/datasets/frcnn_data/D0442_06HD/imgs/D0442_06HD_0076.png'
p1552
aS'/Volumes/nyee/datasets/frcnn_data/D008_03HD/imgs/D008_03HD_0074.png'
p1553
aS'/Volumes/nyee/datasets/frcnn_data/D008_03HD/imgs/D008_03HD_0266.png'
p1554
aS'/Volumes/nyee/datasets/frcnn_data/D0232_04HD/imgs/D0232_04HD_0074.png'
p1555
aS'/Volumes/nyee/datasets/frcnn_data/D0232_04HD/imgs/D0232_04HD_0361.png'
p1556
aS'/Volumes/nyee/datasets/frcnn_data/D0232_04HD/imgs/D0232_04HD_0344.png'
p1557
aS'/Volumes/nyee/datasets/frcnn_data/D0232_04HD/imgs/D0232_04HD_0266.png'
p1558
aS'/Volumes/nyee/datasets/frcnn_data/D0442_06HD/imgs/D0442_06HD_0153.png'
p1559
aS'/Volumes/nyee/datasets/frcnn_data/D0442_06HD/imgs/D0442_06HD_0337.png'
p1560
aS'/Volumes/nyee/datasets/frcnn_data/D0443_05HD/imgs/D0443_05HD_0189.png'
p1561
aS'/Volumes/nyee/datasets/frcnn_data/D008_03HD/imgs/D008_03HD_0349.png'
p1562
aS'/Volumes/nyee/datasets/frcnn_data/D008_03HD/imgs/D008_03HD_0097.png'
p1563
aS'/Volumes/nyee/datasets/frcnn_data/D0443_05HD/imgs/D0443_05HD_0158.png'
p1564
aS'/Volumes/nyee/datasets/frcnn_data/D0232_04HD/imgs/D0232_04HD_0352.png'
p1565
aS'/Volumes/nyee/datasets/frcnn_data/D0442_06HD/imgs/D0442_06HD_0142.png'
p1566
aS'/Volumes/nyee/datasets/frcnn_data/D0232_04HD/imgs/D0232_04HD_0306.png'
p1567
aS'/Volumes/nyee/datasets/frcnn_data/D0443_05HD/imgs/D0443_05HD_0273.png'
p1568
aS'/Volumes/nyee/datasets/frcnn_data/D0232_04HD/imgs/D0232_04HD_0321.png'
p1569
aS'/Volumes/nyee/datasets/frcnn_data/D0442_06HD/imgs/D0442_06HD_0256.png'
p1570
aS'/Volumes/nyee/datasets/frcnn_data/D008_03HD/imgs/D008_03HD_0198.png'
p1571
aS'/Volumes/nyee/datasets/frcnn_data/D0673_04HD/imgs/D0673_04HD_0110.png'
p1572
aS'/Volumes/nyee/datasets/frcnn_data/D0443_05HD/imgs/D0443_05HD_0076.png'
p1573
aS'/Volumes/nyee/datasets/frcnn_data/D0442_06HD/imgs/D0442_06HD_0338.png'
p1574
aS'/Volumes/nyee/datasets/frcnn_data/D0673_04HD/imgs/D0673_04HD_0077.png'
p1575
aS'/Volumes/nyee/datasets/frcnn_data/D0443_05HD/imgs/D0443_05HD_0256.png'
p1576
aS'/Volumes/nyee/datasets/frcnn_data/D008_03HD/imgs/D008_03HD_0290.png'
p1577
aS'/Volumes/nyee/datasets/frcnn_data/D008_03HD/imgs/D008_03HD_0260.png'
p1578
aS'/Volumes/nyee/datasets/frcnn_data/D0673_04HD/imgs/D0673_04HD_0012.png'
p1579
aS'/Volumes/nyee/datasets/frcnn_data/D008_03HD/imgs/D008_03HD_0328.png'
p1580
aS'/Volumes/nyee/datasets/frcnn_data/D0443_05HD/imgs/D0443_05HD_0179.png'
p1581
aS'/Volumes/nyee/datasets/frcnn_data/D0442_06HD/imgs/D0442_06HD_0174.png'
p1582
aS'/Volumes/nyee/datasets/frcnn_data/D0442_06HD/imgs/D0442_06HD_0095.png'
p1583
aS'/Volumes/nyee/datasets/frcnn_data/D0443_05HD/imgs/D0443_05HD_0139.png'
p1584
aS'/Volumes/nyee/datasets/frcnn_data/D0232_04HD/imgs/D0232_04HD_0095.png'
p1585
aS'/Volumes/nyee/datasets/frcnn_data/D0673_04HD/imgs/D0673_04HD_0094.png'
p1586
aS'/Volumes/nyee/datasets/frcnn_data/D0673_04HD/imgs/D0673_04HD_0078.png'
p1587
aS'/Volumes/nyee/datasets/frcnn_data/D0443_05HD/imgs/D0443_05HD_0343.png'
p1588
aS'/Volumes/nyee/datasets/frcnn_data/D008_03HD/imgs/D008_03HD_0298.png'
p1589
aS'/Volumes/nyee/datasets/frcnn_data/D008_03HD/imgs/D008_03HD_0247.png'
p1590
aS'/Volumes/nyee/datasets/frcnn_data/D008_03HD/imgs/D008_03HD_0352.png'
p1591
aS'/Volumes/nyee/datasets/frcnn_data/D0232_04HD/imgs/D0232_04HD_0216.png'
p1592
aS'/Volumes/nyee/datasets/frcnn_data/D008_03HD/imgs/D008_03HD_0095.png'
p1593
aS'/Volumes/nyee/datasets/frcnn_data/D0232_04HD/imgs/D0232_04HD_0070.png'
p1594
aS'/Volumes/nyee/datasets/frcnn_data/D0443_05HD/imgs/D0443_05HD_0290.png'
p1595
aS'/Volumes/nyee/datasets/frcnn_data/D0442_06HD/imgs/D0442_06HD_0129.png'
p1596
aS'/Volumes/nyee/datasets/frcnn_data/D0232_04HD/imgs/D0232_04HD_0300.png'
p1597
aS'/Volumes/nyee/datasets/frcnn_data/D008_03HD/imgs/D008_03HD_0170.png'
p1598
aS'/Volumes/nyee/datasets/frcnn_data/D0443_05HD/imgs/D0443_05HD_0236.png'
p1599
aS'/Volumes/nyee/datasets/frcnn_data/D008_03HD/imgs/D008_03HD_0167.png'
p1600
aS'/Volumes/nyee/datasets/frcnn_data/D008_03HD/imgs/D008_03HD_0181.png'
p1601
aS'/Volumes/nyee/datasets/frcnn_data/D0443_05HD/imgs/D0443_05HD_0025.png'
p1602
aS'/Volumes/nyee/datasets/frcnn_data/D008_03HD/imgs/D008_03HD_0274.png'
p1603
aS'/Volumes/nyee/datasets/frcnn_data/D0443_05HD/imgs/D0443_05HD_0205.png'
p1604
aS'/Volumes/nyee/datasets/frcnn_data/D0442_06HD/imgs/D0442_06HD_0196.png'
p1605
aS'/Volumes/nyee/datasets/frcnn_data/D0443_05HD/imgs/D0443_05HD_0015.png'
p1606
aS'/Volumes/nyee/datasets/frcnn_data/D008_03HD/imgs/D008_03HD_0222.png'
p1607
aS'/Volumes/nyee/datasets/frcnn_data/D0232_04HD/imgs/D0232_04HD_0078.png'
p1608
aS'/Volumes/nyee/datasets/frcnn_data/D0673_04HD/imgs/D0673_04HD_0042.png'
p1609
aS'/Volumes/nyee/datasets/frcnn_data/D0232_04HD/imgs/D0232_04HD_0340.png'
p1610
aS'/Volumes/nyee/datasets/frcnn_data/D0232_04HD/imgs/D0232_04HD_0287.png'
p1611
aS'/Volumes/nyee/datasets/frcnn_data/D008_03HD/imgs/D008_03HD_0160.png'
p1612
aS'/Volumes/nyee/datasets/frcnn_data/D0442_06HD/imgs/D0442_06HD_0117.png'
p1613
aS'/Volumes/nyee/datasets/frcnn_data/D0232_04HD/imgs/D0232_04HD_0325.png'
p1614
aS'/Volumes/nyee/datasets/frcnn_data/D008_03HD/imgs/D008_03HD_0243.png'
p1615
aS'/Volumes/nyee/datasets/frcnn_data/D0232_04HD/imgs/D0232_04HD_0014.png'
p1616
aS'/Volumes/nyee/datasets/frcnn_data/D008_03HD/imgs/D008_03HD_0197.png'
p1617
aS'/Volumes/nyee/datasets/frcnn_data/D008_03HD/imgs/D008_03HD_0157.png'
p1618
aS'/Volumes/nyee/datasets/frcnn_data/D0443_05HD/imgs/D0443_05HD_0377.png'
p1619
aS'/Volumes/nyee/datasets/frcnn_data/D0673_04HD/imgs/D0673_04HD_0192.png'
p1620
aS'/Volumes/nyee/datasets/frcnn_data/D008_03HD/imgs/D008_03HD_0135.png'
p1621
aS'/Volumes/nyee/datasets/frcnn_data/D0443_05HD/imgs/D0443_05HD_0334.png'
p1622
aS'/Volumes/nyee/datasets/frcnn_data/D0442_06HD/imgs/D0442_06HD_0291.png'
p1623
aS'/Volumes/nyee/datasets/frcnn_data/D008_03HD/imgs/D008_03HD_0015.png'
p1624
aS'/Volumes/nyee/datasets/frcnn_data/D0442_06HD/imgs/D0442_06HD_0166.png'
p1625
aS'/Volumes/nyee/datasets/frcnn_data/D0232_04HD/imgs/D0232_04HD_0156.png'
p1626
aS'/Volumes/nyee/datasets/frcnn_data/D0442_06HD/imgs/D0442_06HD_0065.png'
p1627
aS'/Volumes/nyee/datasets/frcnn_data/D0442_06HD/imgs/D0442_06HD_0200.png'
p1628
aS'/Volumes/nyee/datasets/frcnn_data/D0232_04HD/imgs/D0232_04HD_0091.png'
p1629
aS'/Volumes/nyee/datasets/frcnn_data/D0673_04HD/imgs/D0673_04HD_0261.png'
p1630
aS'/Volumes/nyee/datasets/frcnn_data/D0232_04HD/imgs/D0232_04HD_0044.png'
p1631
aS'/Volumes/nyee/datasets/frcnn_data/D0232_04HD/imgs/D0232_04HD_0355.png'
p1632
aS'/Volumes/nyee/datasets/frcnn_data/D0232_04HD/imgs/D0232_04HD_0161.png'
p1633
aS'/Volumes/nyee/datasets/frcnn_data/D0442_06HD/imgs/D0442_06HD_0156.png'
p1634
aS'/Volumes/nyee/datasets/frcnn_data/D0673_04HD/imgs/D0673_04HD_0191.png'
p1635
aS'/Volumes/nyee/datasets/frcnn_data/D0232_04HD/imgs/D0232_04HD_0218.png'
p1636
aS'/Volumes/nyee/datasets/frcnn_data/D0232_04HD/imgs/D0232_04HD_0130.png'
p1637
aS'/Volumes/nyee/datasets/frcnn_data/D0232_04HD/imgs/D0232_04HD_0051.png'
p1638
aS'/Volumes/nyee/datasets/frcnn_data/D008_03HD/imgs/D008_03HD_0320.png'
p1639
aS'/Volumes/nyee/datasets/frcnn_data/D0443_05HD/imgs/D0443_05HD_0171.png'
p1640
aS'/Volumes/nyee/datasets/frcnn_data/D0442_06HD/imgs/D0442_06HD_0023.png'
p1641
aS'/Volumes/nyee/datasets/frcnn_data/D0443_05HD/imgs/D0443_05HD_0094.png'
p1642
aS'/Volumes/nyee/datasets/frcnn_data/D0673_04HD/imgs/D0673_04HD_0205.png'
p1643
aS'/Volumes/nyee/datasets/frcnn_data/D0442_06HD/imgs/D0442_06HD_0272.png'
p1644
aS'/Volumes/nyee/datasets/frcnn_data/D0442_06HD/imgs/D0442_06HD_0262.png'
p1645
aS'/Volumes/nyee/datasets/frcnn_data/D0442_06HD/imgs/D0442_06HD_0375.png'
p1646
aS'/Volumes/nyee/datasets/frcnn_data/D0443_05HD/imgs/D0443_05HD_0023.png'
p1647
aS'/Volumes/nyee/datasets/frcnn_data/D0442_06HD/imgs/D0442_06HD_0347.png'
p1648
aS'/Volumes/nyee/datasets/frcnn_data/D0673_04HD/imgs/D0673_04HD_0127.png'
p1649
aS'/Volumes/nyee/datasets/frcnn_data/D008_03HD/imgs/D008_03HD_0226.png'
p1650
aS'/Volumes/nyee/datasets/frcnn_data/D0673_04HD/imgs/D0673_04HD_0083.png'
p1651
aS'/Volumes/nyee/datasets/frcnn_data/D0232_04HD/imgs/D0232_04HD_0310.png'
p1652
aS'/Volumes/nyee/datasets/frcnn_data/D0443_05HD/imgs/D0443_05HD_0011.png'
p1653
aS'/Volumes/nyee/datasets/frcnn_data/D0443_05HD/imgs/D0443_05HD_0222.png'
p1654
aS'/Volumes/nyee/datasets/frcnn_data/D008_03HD/imgs/D008_03HD_0255.png'
p1655
aS'/Volumes/nyee/datasets/frcnn_data/D0232_04HD/imgs/D0232_04HD_0046.png'
p1656
aS'/Volumes/nyee/datasets/frcnn_data/D0443_05HD/imgs/D0443_05HD_0364.png'
p1657
aS'/Volumes/nyee/datasets/frcnn_data/D0232_04HD/imgs/D0232_04HD_0279.png'
p1658
aS'/Volumes/nyee/datasets/frcnn_data/D0442_06HD/imgs/D0442_06HD_0154.png'
p1659
aS'/Volumes/nyee/datasets/frcnn_data/D0443_05HD/imgs/D0443_05HD_0350.png'
p1660
aS'/Volumes/nyee/datasets/frcnn_data/D008_03HD/imgs/D008_03HD_0069.png'
p1661
aS'/Volumes/nyee/datasets/frcnn_data/D0673_04HD/imgs/D0673_04HD_0175.png'
p1662
aS'/Volumes/nyee/datasets/frcnn_data/D0442_06HD/imgs/D0442_06HD_0248.png'
p1663
aS'/Volumes/nyee/datasets/frcnn_data/D0232_04HD/imgs/D0232_04HD_0317.png'
p1664
aS'/Volumes/nyee/datasets/frcnn_data/D0232_04HD/imgs/D0232_04HD_0369.png'
p1665
aS'/Volumes/nyee/datasets/frcnn_data/D0232_04HD/imgs/D0232_04HD_0335.png'
p1666
aS'/Volumes/nyee/datasets/frcnn_data/D0673_04HD/imgs/D0673_04HD_0184.png'
p1667
aS'/Volumes/nyee/datasets/frcnn_data/D0232_04HD/imgs/D0232_04HD_0106.png'
p1668
aS'/Volumes/nyee/datasets/frcnn_data/D0673_04HD/imgs/D0673_04HD_0222.png'
p1669
aS'/Volumes/nyee/datasets/frcnn_data/D0443_05HD/imgs/D0443_05HD_0053.png'
p1670
aS'/Volumes/nyee/datasets/frcnn_data/D0442_06HD/imgs/D0442_06HD_0305.png'
p1671
aS'/Volumes/nyee/datasets/frcnn_data/D0232_04HD/imgs/D0232_04HD_0004.png'
p1672
aS'/Volumes/nyee/datasets/frcnn_data/D0443_05HD/imgs/D0443_05HD_0072.png'
p1673
aS'/Volumes/nyee/datasets/frcnn_data/D0232_04HD/imgs/D0232_04HD_0099.png'
p1674
aS'/Volumes/nyee/datasets/frcnn_data/D0443_05HD/imgs/D0443_05HD_0230.png'
p1675
aS'/Volumes/nyee/datasets/frcnn_data/D008_03HD/imgs/D008_03HD_0285.png'
p1676
aS'/Volumes/nyee/datasets/frcnn_data/D008_03HD/imgs/D008_03HD_0257.png'
p1677
aS'/Volumes/nyee/datasets/frcnn_data/D0232_04HD/imgs/D0232_04HD_0254.png'
p1678
aS'/Volumes/nyee/datasets/frcnn_data/D0232_04HD/imgs/D0232_04HD_0248.png'
p1679
aS'/Volumes/nyee/datasets/frcnn_data/D0442_06HD/imgs/D0442_06HD_0124.png'
p1680
aS'/Volumes/nyee/datasets/frcnn_data/D0232_04HD/imgs/D0232_04HD_0282.png'
p1681
aS'/Volumes/nyee/datasets/frcnn_data/D0443_05HD/imgs/D0443_05HD_0362.png'
p1682
aS'/Volumes/nyee/datasets/frcnn_data/D0443_05HD/imgs/D0443_05HD_0157.png'
p1683
aS'/Volumes/nyee/datasets/frcnn_data/D0232_04HD/imgs/D0232_04HD_0138.png'
p1684
aS'/Volumes/nyee/datasets/frcnn_data/D0673_04HD/imgs/D0673_04HD_0195.png'
p1685
aS'/Volumes/nyee/datasets/frcnn_data/D0232_04HD/imgs/D0232_04HD_0214.png'
p1686
aS'/Volumes/nyee/datasets/frcnn_data/D008_03HD/imgs/D008_03HD_0346.png'
p1687
aS'/Volumes/nyee/datasets/frcnn_data/D0673_04HD/imgs/D0673_04HD_0059.png'
p1688
aS'/Volumes/nyee/datasets/frcnn_data/D0443_05HD/imgs/D0443_05HD_0044.png'
p1689
aS'/Volumes/nyee/datasets/frcnn_data/D0442_06HD/imgs/D0442_06HD_0133.png'
p1690
aS'/Volumes/nyee/datasets/frcnn_data/D0443_05HD/imgs/D0443_05HD_0186.png'
p1691
aS'/Volumes/nyee/datasets/frcnn_data/D0443_05HD/imgs/D0443_05HD_0051.png'
p1692
aS'/Volumes/nyee/datasets/frcnn_data/D0443_05HD/imgs/D0443_05HD_0063.png'
p1693
aS'/Volumes/nyee/datasets/frcnn_data/D008_03HD/imgs/D008_03HD_0232.png'
p1694
aS'/Volumes/nyee/datasets/frcnn_data/D008_03HD/imgs/D008_03HD_0008.png'
p1695
aS'/Volumes/nyee/datasets/frcnn_data/D0673_04HD/imgs/D0673_04HD_0159.png'
p1696
aS'/Volumes/nyee/datasets/frcnn_data/D0232_04HD/imgs/D0232_04HD_0016.png'
p1697
aS'/Volumes/nyee/datasets/frcnn_data/D0443_05HD/imgs/D0443_05HD_0084.png'
p1698
aS'/Volumes/nyee/datasets/frcnn_data/D0443_05HD/imgs/D0443_05HD_0019.png'
p1699
aS'/Volumes/nyee/datasets/frcnn_data/D0442_06HD/imgs/D0442_06HD_0289.png'
p1700
aS'/Volumes/nyee/datasets/frcnn_data/D008_03HD/imgs/D008_03HD_0021.png'
p1701
aS'/Volumes/nyee/datasets/frcnn_data/D0443_05HD/imgs/D0443_05HD_0347.png'
p1702
aS'/Volumes/nyee/datasets/frcnn_data/D008_03HD/imgs/D008_03HD_0133.png'
p1703
aS'/Volumes/nyee/datasets/frcnn_data/D0673_04HD/imgs/D0673_04HD_0002.png'
p1704
aS'/Volumes/nyee/datasets/frcnn_data/D0442_06HD/imgs/D0442_06HD_0108.png'
p1705
aS'/Volumes/nyee/datasets/frcnn_data/D0442_06HD/imgs/D0442_06HD_0119.png'
p1706
aS'/Volumes/nyee/datasets/frcnn_data/D0232_04HD/imgs/D0232_04HD_0029.png'
p1707
aS'/Volumes/nyee/datasets/frcnn_data/D0442_06HD/imgs/D0442_06HD_0197.png'
p1708
aS'/Volumes/nyee/datasets/frcnn_data/D0232_04HD/imgs/D0232_04HD_0280.png'
p1709
aS'/Volumes/nyee/datasets/frcnn_data/D008_03HD/imgs/D008_03HD_0206.png'
p1710
aS'/Volumes/nyee/datasets/frcnn_data/D0443_05HD/imgs/D0443_05HD_0331.png'
p1711
aS'/Volumes/nyee/datasets/frcnn_data/D0673_04HD/imgs/D0673_04HD_0213.png'
p1712
aS'/Volumes/nyee/datasets/frcnn_data/D0442_06HD/imgs/D0442_06HD_0220.png'
p1713
aS'/Volumes/nyee/datasets/frcnn_data/D0673_04HD/imgs/D0673_04HD_0158.png'
p1714
aS'/Volumes/nyee/datasets/frcnn_data/D008_03HD/imgs/D008_03HD_0018.png'
p1715
aS'/Volumes/nyee/datasets/frcnn_data/D008_03HD/imgs/D008_03HD_0234.png'
p1716
aS'/Volumes/nyee/datasets/frcnn_data/D0443_05HD/imgs/D0443_05HD_0065.png'
p1717
aS'/Volumes/nyee/datasets/frcnn_data/D0443_05HD/imgs/D0443_05HD_0211.png'
p1718
aS'/Volumes/nyee/datasets/frcnn_data/D0442_06HD/imgs/D0442_06HD_0016.png'
p1719
aS'/Volumes/nyee/datasets/frcnn_data/D0673_04HD/imgs/D0673_04HD_0165.png'
p1720
aS'/Volumes/nyee/datasets/frcnn_data/D0443_05HD/imgs/D0443_05HD_0096.png'
p1721
aS'/Volumes/nyee/datasets/frcnn_data/D0232_04HD/imgs/D0232_04HD_0199.png'
p1722
aS'/Volumes/nyee/datasets/frcnn_data/D0673_04HD/imgs/D0673_04HD_0049.png'
p1723
aS'/Volumes/nyee/datasets/frcnn_data/D0442_06HD/imgs/D0442_06HD_0002.png'
p1724
aS'/Volumes/nyee/datasets/frcnn_data/D008_03HD/imgs/D008_03HD_0090.png'
p1725
aS'/Volumes/nyee/datasets/frcnn_data/D0442_06HD/imgs/D0442_06HD_0191.png'
p1726
aS'/Volumes/nyee/datasets/frcnn_data/D0442_06HD/imgs/D0442_06HD_0372.png'
p1727
aS'/Volumes/nyee/datasets/frcnn_data/D0442_06HD/imgs/D0442_06HD_0257.png'
p1728
aS'/Volumes/nyee/datasets/frcnn_data/D0673_04HD/imgs/D0673_04HD_0041.png'
p1729
aS'/Volumes/nyee/datasets/frcnn_data/D0442_06HD/imgs/D0442_06HD_0301.png'
p1730
aS'/Volumes/nyee/datasets/frcnn_data/D0232_04HD/imgs/D0232_04HD_0363.png'
p1731
aS'/Volumes/nyee/datasets/frcnn_data/D0442_06HD/imgs/D0442_06HD_0276.png'
p1732
aS'/Volumes/nyee/datasets/frcnn_data/D0673_04HD/imgs/D0673_04HD_0030.png'
p1733
aS'/Volumes/nyee/datasets/frcnn_data/D0443_05HD/imgs/D0443_05HD_0268.png'
p1734
aS'/Volumes/nyee/datasets/frcnn_data/D0442_06HD/imgs/D0442_06HD_0083.png'
p1735
aS'/Volumes/nyee/datasets/frcnn_data/D0232_04HD/imgs/D0232_04HD_0084.png'
p1736
aS'/Volumes/nyee/datasets/frcnn_data/D0442_06HD/imgs/D0442_06HD_0331.png'
p1737
aS'/Volumes/nyee/datasets/frcnn_data/D0443_05HD/imgs/D0443_05HD_0143.png'
p1738
aS'/Volumes/nyee/datasets/frcnn_data/D008_03HD/imgs/D008_03HD_0330.png'
p1739
aS'/Volumes/nyee/datasets/frcnn_data/D0442_06HD/imgs/D0442_06HD_0371.png'
p1740
aS'/Volumes/nyee/datasets/frcnn_data/D008_03HD/imgs/D008_03HD_0106.png'
p1741
aS'/Volumes/nyee/datasets/frcnn_data/D0673_04HD/imgs/D0673_04HD_0038.png'
p1742
aS'/Volumes/nyee/datasets/frcnn_data/D008_03HD/imgs/D008_03HD_0116.png'
p1743
aS'/Volumes/nyee/datasets/frcnn_data/D0443_05HD/imgs/D0443_05HD_0119.png'
p1744
aS'/Volumes/nyee/datasets/frcnn_data/D008_03HD/imgs/D008_03HD_0308.png'
p1745
aS'/Volumes/nyee/datasets/frcnn_data/D0232_04HD/imgs/D0232_04HD_0275.png'
p1746
aS'/Volumes/nyee/datasets/frcnn_data/D0442_06HD/imgs/D0442_06HD_0127.png'
p1747
aS'/Volumes/nyee/datasets/frcnn_data/D0673_04HD/imgs/D0673_04HD_0252.png'
p1748
aS'/Volumes/nyee/datasets/frcnn_data/D0442_06HD/imgs/D0442_06HD_0063.png'
p1749
aS'/Volumes/nyee/datasets/frcnn_data/D0232_04HD/imgs/D0232_04HD_0093.png'
p1750
aS'/Volumes/nyee/datasets/frcnn_data/D0232_04HD/imgs/D0232_04HD_0296.png'
p1751
aS'/Volumes/nyee/datasets/frcnn_data/D0232_04HD/imgs/D0232_04HD_0128.png'
p1752
aS'/Volumes/nyee/datasets/frcnn_data/D0673_04HD/imgs/D0673_04HD_0171.png'
p1753
aS'/Volumes/nyee/datasets/frcnn_data/D0673_04HD/imgs/D0673_04HD_0020.png'
p1754
aS'/Volumes/nyee/datasets/frcnn_data/D0673_04HD/imgs/D0673_04HD_0142.png'
p1755
aS'/Volumes/nyee/datasets/frcnn_data/D0443_05HD/imgs/D0443_05HD_0291.png'
p1756
aS'/Volumes/nyee/datasets/frcnn_data/D0443_05HD/imgs/D0443_05HD_0056.png'
p1757
aS'/Volumes/nyee/datasets/frcnn_data/D0442_06HD/imgs/D0442_06HD_0211.png'
p1758
aS'/Volumes/nyee/datasets/frcnn_data/D0442_06HD/imgs/D0442_06HD_0176.png'
p1759
aS'/Volumes/nyee/datasets/frcnn_data/D0442_06HD/imgs/D0442_06HD_0308.png'
p1760
aS'/Volumes/nyee/datasets/frcnn_data/D0443_05HD/imgs/D0443_05HD_0091.png'
p1761
aS'/Volumes/nyee/datasets/frcnn_data/D008_03HD/imgs/D008_03HD_0189.png'
p1762
aS'/Volumes/nyee/datasets/frcnn_data/D0443_05HD/imgs/D0443_05HD_0351.png'
p1763
aS'/Volumes/nyee/datasets/frcnn_data/D0673_04HD/imgs/D0673_04HD_0029.png'
p1764
atp1765
Rp1766
.