c__builtin__
set
p0
((lp1
S'/Volumes/nyee/datasets/frcnn_data/D0772_09HD/imgs/D0772_09HD_00-00-25.png'
p2
aS'/Volumes/nyee/datasets/frcnn_data/D0232_04HD/imgs/D0232_04HD_00-00-20.png'
p3
aS'/Volumes/nyee/datasets/frcnn_data/D0772_09HD/imgs/D0772_09HD_00-00-35.png'
p4
aS'/Volumes/nyee/datasets/frcnn_data/D0442_06HD/imgs/D0442_06HD_00-00-10.png'
p5
aS'/Volumes/nyee/datasets/frcnn_data/D0442_06HD/imgs/D0442_06HD_00-00-20.png'
p6
aS'/Volumes/nyee/datasets/frcnn_data/D008_03HD/imgs/D008_03HD_00-00-10.png'
p7
aS'/Volumes/nyee/datasets/frcnn_data/D0443_05HD/imgs/D0443_05HD_00-00-00.png'
p8
aS'/Volumes/nyee/datasets/frcnn_data/D0673_04HD/imgs/D0673_04HD_00-00-20.png'
p9
aS'/Volumes/nyee/datasets/frcnn_data/D0232_04HD/imgs/D0232_04HD_00-00-15.png'
p10
aS'/Volumes/nyee/datasets/frcnn_data/D0772_09HD/imgs/D0772_09HD_00-00-05.png'
p11
aS'/Volumes/nyee/datasets/frcnn_data/D0232_04HD/imgs/D0232_04HD_00-00-00.png'
p12
aS'/Volumes/nyee/datasets/frcnn_data/D0232_04HD/imgs/D0232_04HD_00-00-45.png'
p13
aS'/Volumes/nyee/datasets/frcnn_data/D0232_04HD/imgs/D0232_04HD_00-00-25.png'
p14
aS'/Volumes/nyee/datasets/frcnn_data/D0772_09HD/imgs/D0772_09HD_00-00-15.png'
p15
aS'/Volumes/nyee/datasets/frcnn_data/D0232_04HD/imgs/D0232_04HD_00-00-40.png'
p16
aS'/Volumes/nyee/datasets/frcnn_data/D008_03HD/imgs/D008_03HD_00-00-20.png'
p17
aS'/Volumes/nyee/datasets/frcnn_data/D0232_04HD/imgs/D0232_04HD_00-00-55.png'
p18
aS'/Volumes/nyee/datasets/frcnn_data/D0673_04HD/imgs/D0673_04HD_00-00-00.png'
p19
aS'/Volumes/nyee/datasets/frcnn_data/D0673_04HD/imgs/D0673_04HD_00-00-25.png'
p20
aS'/Volumes/nyee/datasets/frcnn_data/D008_03HD/imgs/D008_03HD_00-00-00.png'
p21
aS'/Volumes/nyee/datasets/frcnn_data/D0443_05HD/imgs/D0443_05HD_00-00-10.png'
p22
aS'/Volumes/nyee/datasets/frcnn_data/D0673_04HD/imgs/D0673_04HD_00-00-30.png'
p23
aS'/Volumes/nyee/datasets/frcnn_data/D0443_05HD/imgs/D0443_05HD_00-00-35.png'
p24
aS'/Volumes/nyee/datasets/frcnn_data/D0772_09HD/imgs/D0772_09HD_00-00-10.png'
p25
aS'/Volumes/nyee/datasets/frcnn_data/D0442_06HD/imgs/D0442_06HD_00-00-05.png'
p26
aS'/Volumes/nyee/datasets/frcnn_data/D0772_09HD/imgs/D0772_09HD_00-00-30.png'
p27
aS'/Volumes/nyee/datasets/frcnn_data/D0442_06HD/imgs/D0442_06HD_00-00-00.png'
p28
aS'/Volumes/nyee/datasets/frcnn_data/D0673_04HD/imgs/D0673_04HD_00-00-05.png'
p29
aS'/Volumes/nyee/datasets/frcnn_data/D0442_06HD/imgs/D0442_06HD_00-00-15.png'
p30
aS'/Volumes/nyee/datasets/frcnn_data/D0443_05HD/imgs/D0443_05HD_00-00-15.png'
p31
aS'/Volumes/nyee/datasets/frcnn_data/D008_03HD/imgs/D008_03HD_00-00-05.png'
p32
aS'/Volumes/nyee/datasets/frcnn_data/D0673_04HD/imgs/D0673_04HD_00-00-15.png'
p33
aS'/Volumes/nyee/datasets/frcnn_data/D0443_05HD/imgs/D0443_05HD_00-00-05.png'
p34
aS'/Volumes/nyee/datasets/frcnn_data/D0443_05HD/imgs/D0443_05HD_00-00-20.png'
p35
aS'/Volumes/nyee/datasets/frcnn_data/D0443_05HD/imgs/D0443_05HD_00-00-30.png'
p36
aS'/Volumes/nyee/datasets/frcnn_data/D0232_04HD/imgs/D0232_04HD_00-00-05.png'
p37
aS'/Volumes/nyee/datasets/frcnn_data/D0232_04HD/imgs/D0232_04HD_00-00-30.png'
p38
aS'/Volumes/nyee/datasets/frcnn_data/D0772_09HD/imgs/D0772_09HD_00-00-20.png'
p39
aS'/Volumes/nyee/datasets/frcnn_data/D0232_04HD/imgs/D0232_04HD_00-00-35.png'
p40
aS'/Volumes/nyee/datasets/frcnn_data/D0232_04HD/imgs/D0232_04HD_00-00-50.png'
p41
aS'/Volumes/nyee/datasets/frcnn_data/D0232_04HD/imgs/D0232_04HD_00-00-10.png'
p42
aS'/Volumes/nyee/datasets/frcnn_data/D008_03HD/imgs/D008_03HD_00-00-15.png'
p43
aS'/Volumes/nyee/datasets/frcnn_data/D0673_04HD/imgs/D0673_04HD_00-00-10.png'
p44
aS'/Volumes/nyee/datasets/frcnn_data/D0673_04HD/imgs/D0673_04HD_00-00-35.png'
p45
aS'/Volumes/nyee/datasets/frcnn_data/D0772_09HD/imgs/D0772_09HD_00-00-00.png'
p46
aS'/Volumes/nyee/datasets/frcnn_data/D0443_05HD/imgs/D0443_05HD_00-00-25.png'
p47
aS'/Volumes/nyee/datasets/frcnn_data/D0443_05HD/imgs/D0443_05HD_00-00-40.png'
p48
atp49
Rp50
.